	.text
	.syntax unified
	.eabi_attribute	67, "2.09"	@ Tag_conformance
	.cpu	cortex-m4
	.eabi_attribute	6, 13	@ Tag_CPU_arch
	.eabi_attribute	7, 77	@ Tag_CPU_arch_profile
	.eabi_attribute	8, 0	@ Tag_ARM_ISA_use
	.eabi_attribute	9, 2	@ Tag_THUMB_ISA_use
	.fpu	fpv4-sp-d16
	.eabi_attribute	27, 1	@ Tag_ABI_HardFP_use
	.eabi_attribute	36, 1	@ Tag_FP_HP_extension
	.eabi_attribute	34, 1	@ Tag_CPU_unaligned_access
	.eabi_attribute	17, 1	@ Tag_ABI_PCS_GOT_use
	.eabi_attribute	20, 2	@ Tag_ABI_FP_denormal
	.eabi_attribute	21, 0	@ Tag_ABI_FP_exceptions
	.eabi_attribute	23, 1	@ Tag_ABI_FP_number_model
	.eabi_attribute	24, 1	@ Tag_ABI_align_needed
	.eabi_attribute	25, 1	@ Tag_ABI_align_preserved
	.eabi_attribute	28, 1	@ Tag_ABI_VFP_args
	.eabi_attribute	38, 1	@ Tag_ABI_FP_16bit_format
	.eabi_attribute	18, 2	@ Tag_ABI_PCS_wchar_t
	.eabi_attribute	26, 1	@ Tag_ABI_enum_size
	.eabi_attribute	14, 0	@ Tag_ABI_PCS_R9_use
	.file	"can.c"
	.file	1 "C:\\Keil_v5\\ARM\\ARMCLANG\\Bin\\..\\include" "stdint.h"
	.file	2 "E:\\RP\\CppTemplate\\MDK-ARM" "../Drivers/CMSIS/Device/ST/STM32F4xx/Include/stm32f407xx.h"
	.file	3 "E:\\RP\\CppTemplate\\MDK-ARM" "../Drivers/STM32F4xx_HAL_Driver/Inc\\stm32f4xx_hal_can.h"
	.file	4 "E:\\RP\\CppTemplate\\MDK-ARM" "../Drivers/CMSIS/Device/ST/STM32F4xx/Include\\stm32f4xx.h"
	.file	5 "E:\\RP\\CppTemplate\\MDK-ARM" "../Core/Src/can.c"
	.file	6 "E:\\RP\\CppTemplate\\MDK-ARM" "../Drivers/STM32F4xx_HAL_Driver/Inc/stm32f4xx_hal_def.h"
	.section	.text.MX_CAN1_Init,"ax",%progbits
	.hidden	MX_CAN1_Init                    @ -- Begin function MX_CAN1_Init
	.globl	MX_CAN1_Init
	.p2align	2
	.type	MX_CAN1_Init,%function
	.code	16                              @ @MX_CAN1_Init
	.thumb_func
MX_CAN1_Init:
.Lfunc_begin0:
	.loc	5 32 0                          @ ../Core/Src/can.c:32:0
	.fnstart
	.cfi_sections .debug_frame
	.cfi_startproc
@ %bb.0:
	.save	{r7, lr}
	push	{r7, lr}
	.cfi_def_cfa_offset 8
	.cfi_offset lr, -4
	.cfi_offset r7, -8
	.pad	#8
	sub	sp, #8
	.cfi_def_cfa_offset 16
.Ltmp0:
	.loc	5 41 18 prologue_end            @ ../Core/Src/can.c:41:18
	movw	r0, :lower16:hcan1
	movt	r0, :upper16:hcan1
	str	r0, [sp, #4]                    @ 4-byte Spill
	movw	r1, #25600
	movt	r1, #16384
	str	r1, [r0]
	movs	r1, #3
	.loc	5 42 24                         @ ../Core/Src/can.c:42:24
	str	r1, [r0, #4]
	movs	r2, #0
	.loc	5 43 19                         @ ../Core/Src/can.c:43:19
	str	r2, [r0, #8]
	.loc	5 44 28                         @ ../Core/Src/can.c:44:28
	str	r2, [r0, #12]
	mov.w	r1, #524288
	.loc	5 45 23                         @ ../Core/Src/can.c:45:23
	str	r1, [r0, #16]
	mov.w	r1, #3145728
	.loc	5 46 23                         @ ../Core/Src/can.c:46:23
	str	r1, [r0, #20]
	.loc	5 47 32                         @ ../Core/Src/can.c:47:32
	strb	r2, [r0, #24]
	movs	r1, #1
	.loc	5 48 25                         @ ../Core/Src/can.c:48:25
	strb	r1, [r0, #25]
	.loc	5 49 25                         @ ../Core/Src/can.c:49:25
	strb	r1, [r0, #26]
	.loc	5 50 33                         @ ../Core/Src/can.c:50:33
	strb	r2, [r0, #27]
	.loc	5 51 32                         @ ../Core/Src/can.c:51:32
	strb	r2, [r0, #28]
	.loc	5 52 35                         @ ../Core/Src/can.c:52:35
	strb	r1, [r0, #29]
.Ltmp1:
	.loc	5 53 7                          @ ../Core/Src/can.c:53:7
	bl	HAL_CAN_Init
.Ltmp2:
	.loc	5 53 7 is_stmt 0                @ ../Core/Src/can.c:53:7
	cbz	r0, .LBB0_2
	b	.LBB0_1
.LBB0_1:
.Ltmp3:
	.loc	5 55 5 is_stmt 1                @ ../Core/Src/can.c:55:5
	bl	Error_Handler
	.loc	5 56 3                          @ ../Core/Src/can.c:56:3
	b	.LBB0_2
.Ltmp4:
.LBB0_2:
	.loc	5 61 1                          @ ../Core/Src/can.c:61:1
	add	sp, #8
	pop	{r7, pc}
.Ltmp5:
.Lfunc_end0:
	.size	MX_CAN1_Init, .Lfunc_end0-MX_CAN1_Init
	.cfi_endproc
	.cantunwind
	.fnend
                                        @ -- End function
	.section	.text.MX_CAN2_Init,"ax",%progbits
	.hidden	MX_CAN2_Init                    @ -- Begin function MX_CAN2_Init
	.globl	MX_CAN2_Init
	.p2align	2
	.type	MX_CAN2_Init,%function
	.code	16                              @ @MX_CAN2_Init
	.thumb_func
MX_CAN2_Init:
.Lfunc_begin1:
	.loc	5 64 0                          @ ../Core/Src/can.c:64:0
	.fnstart
	.cfi_startproc
@ %bb.0:
	.save	{r7, lr}
	push	{r7, lr}
	.cfi_def_cfa_offset 8
	.cfi_offset lr, -4
	.cfi_offset r7, -8
	.pad	#8
	sub	sp, #8
	.cfi_def_cfa_offset 16
.Ltmp6:
	.loc	5 73 18 prologue_end            @ ../Core/Src/can.c:73:18
	movw	r0, :lower16:hcan2
	movt	r0, :upper16:hcan2
	str	r0, [sp, #4]                    @ 4-byte Spill
	movw	r1, #26624
	movt	r1, #16384
	str	r1, [r0]
	movs	r1, #3
	.loc	5 74 24                         @ ../Core/Src/can.c:74:24
	str	r1, [r0, #4]
	movs	r2, #0
	.loc	5 75 19                         @ ../Core/Src/can.c:75:19
	str	r2, [r0, #8]
	.loc	5 76 28                         @ ../Core/Src/can.c:76:28
	str	r2, [r0, #12]
	mov.w	r1, #524288
	.loc	5 77 23                         @ ../Core/Src/can.c:77:23
	str	r1, [r0, #16]
	mov.w	r1, #3145728
	.loc	5 78 23                         @ ../Core/Src/can.c:78:23
	str	r1, [r0, #20]
	.loc	5 79 32                         @ ../Core/Src/can.c:79:32
	strb	r2, [r0, #24]
	movs	r1, #1
	.loc	5 80 25                         @ ../Core/Src/can.c:80:25
	strb	r1, [r0, #25]
	.loc	5 81 25                         @ ../Core/Src/can.c:81:25
	strb	r1, [r0, #26]
	.loc	5 82 33                         @ ../Core/Src/can.c:82:33
	strb	r2, [r0, #27]
	.loc	5 83 32                         @ ../Core/Src/can.c:83:32
	strb	r2, [r0, #28]
	.loc	5 84 35                         @ ../Core/Src/can.c:84:35
	strb	r1, [r0, #29]
.Ltmp7:
	.loc	5 85 7                          @ ../Core/Src/can.c:85:7
	bl	HAL_CAN_Init
.Ltmp8:
	.loc	5 85 7 is_stmt 0                @ ../Core/Src/can.c:85:7
	cbz	r0, .LBB1_2
	b	.LBB1_1
.LBB1_1:
.Ltmp9:
	.loc	5 87 5 is_stmt 1                @ ../Core/Src/can.c:87:5
	bl	Error_Handler
	.loc	5 88 3                          @ ../Core/Src/can.c:88:3
	b	.LBB1_2
.Ltmp10:
.LBB1_2:
	.loc	5 93 1                          @ ../Core/Src/can.c:93:1
	add	sp, #8
	pop	{r7, pc}
.Ltmp11:
.Lfunc_end1:
	.size	MX_CAN2_Init, .Lfunc_end1-MX_CAN2_Init
	.cfi_endproc
	.cantunwind
	.fnend
                                        @ -- End function
	.section	.text.HAL_CAN_MspInit,"ax",%progbits
	.hidden	HAL_CAN_MspInit                 @ -- Begin function HAL_CAN_MspInit
	.globl	HAL_CAN_MspInit
	.p2align	2
	.type	HAL_CAN_MspInit,%function
	.code	16                              @ @HAL_CAN_MspInit
	.thumb_func
HAL_CAN_MspInit:
.Lfunc_begin2:
	.loc	5 98 0                          @ ../Core/Src/can.c:98:0
	.fnstart
	.cfi_startproc
@ %bb.0:
	.save	{r7, lr}
	push	{r7, lr}
	.cfi_def_cfa_offset 8
	.cfi_offset lr, -4
	.cfi_offset r7, -8
	.pad	#64
	sub	sp, #64
	.cfi_def_cfa_offset 72
	str	r0, [sp, #60]
	movs	r0, #0
.Ltmp12:
	.loc	5 100 20 prologue_end           @ ../Core/Src/can.c:100:20
	str	r0, [sp, #56]
	str	r0, [sp, #52]
	str	r0, [sp, #48]
	str	r0, [sp, #44]
	str	r0, [sp, #40]
.Ltmp13:
	.loc	5 101 6                         @ ../Core/Src/can.c:101:6
	ldr	r0, [sp, #60]
	.loc	5 101 17 is_stmt 0              @ ../Core/Src/can.c:101:17
	ldr	r0, [r0]
	movw	r1, #25600
	movt	r1, #16384
.Ltmp14:
	.loc	5 101 6                         @ ../Core/Src/can.c:101:6
	cmp	r0, r1
	bne	.LBB2_8
	b	.LBB2_1
.LBB2_1:
.Ltmp15:
	.loc	5 107 29 is_stmt 1              @ ../Core/Src/can.c:107:29
	movw	r0, :lower16:HAL_RCC_CAN1_CLK_ENABLED
	movt	r0, :upper16:HAL_RCC_CAN1_CLK_ENABLED
	ldr	r1, [r0]
	adds	r1, #1
	str	r1, [r0]
.Ltmp16:
	.loc	5 108 8                         @ ../Core/Src/can.c:108:8
	ldr	r0, [r0]
.Ltmp17:
	.loc	5 108 8 is_stmt 0               @ ../Core/Src/can.c:108:8
	cmp	r0, #1
	bne	.LBB2_5
	b	.LBB2_2
.LBB2_2:
.Ltmp18:
	.loc	5 109 7 is_stmt 1               @ ../Core/Src/can.c:109:7
	b	.LBB2_3
.LBB2_3:
	.loc	5 0 7 is_stmt 0                 @ ../Core/Src/can.c:0:7
	movs	r0, #0
.Ltmp19:
	.loc	5 109 7                         @ ../Core/Src/can.c:109:7
	str	r0, [sp, #36]
	movw	r0, #14400
	movt	r0, #16386
	ldr	r1, [r0]
	orr	r1, r1, #33554432
	str	r1, [r0]
	ldr	r0, [r0]
	and	r0, r0, #33554432
	str	r0, [sp, #36]
	ldr	r0, [sp, #36]
	b	.LBB2_4
.Ltmp20:
.LBB2_4:
	.loc	5 110 5 is_stmt 1               @ ../Core/Src/can.c:110:5
	b	.LBB2_5
.Ltmp21:
.LBB2_5:
	.loc	5 112 5                         @ ../Core/Src/can.c:112:5
	b	.LBB2_6
.LBB2_6:
	.loc	5 0 5 is_stmt 0                 @ ../Core/Src/can.c:0:5
	movs	r0, #0
.Ltmp22:
	.loc	5 112 5                         @ ../Core/Src/can.c:112:5
	str	r0, [sp, #32]
	movw	r0, #14384
	movt	r0, #16386
	ldr	r1, [r0]
	orr	r1, r1, #8
	str	r1, [r0]
	ldr	r0, [r0]
	and	r0, r0, #8
	str	r0, [sp, #32]
	ldr	r0, [sp, #32]
	b	.LBB2_7
.Ltmp23:
.LBB2_7:
	.loc	5 0 5                           @ ../Core/Src/can.c:0:5
	movs	r0, #3
	.loc	5 117 25 is_stmt 1              @ ../Core/Src/can.c:117:25
	str	r0, [sp, #40]
	movs	r1, #2
	.loc	5 118 26                        @ ../Core/Src/can.c:118:26
	str	r1, [sp, #44]
	movs	r1, #0
	.loc	5 119 26                        @ ../Core/Src/can.c:119:26
	str	r1, [sp, #12]                   @ 4-byte Spill
	str	r1, [sp, #48]
	.loc	5 120 27                        @ ../Core/Src/can.c:120:27
	str	r0, [sp, #52]
	movs	r0, #9
	.loc	5 121 31                        @ ../Core/Src/can.c:121:31
	str	r0, [sp, #56]
	movw	r0, #3072
	movt	r0, #16386
	add	r1, sp, #40
	.loc	5 122 5                         @ ../Core/Src/can.c:122:5
	bl	HAL_GPIO_Init
	ldr	r2, [sp, #12]                   @ 4-byte Reload
	movs	r0, #20
	str	r0, [sp, #16]                   @ 4-byte Spill
	movs	r1, #5
	.loc	5 125 5                         @ ../Core/Src/can.c:125:5
	bl	HAL_NVIC_SetPriority
	ldr	r0, [sp, #16]                   @ 4-byte Reload
	.loc	5 126 5                         @ ../Core/Src/can.c:126:5
	bl	HAL_NVIC_EnableIRQ
	.loc	5 130 3                         @ ../Core/Src/can.c:130:3
	b	.LBB2_19
.Ltmp24:
.LBB2_8:
	.loc	5 131 11                        @ ../Core/Src/can.c:131:11
	ldr	r0, [sp, #60]
	.loc	5 131 22 is_stmt 0              @ ../Core/Src/can.c:131:22
	ldr	r0, [r0]
	movw	r1, #26624
	movt	r1, #16384
.Ltmp25:
	.loc	5 131 11                        @ ../Core/Src/can.c:131:11
	cmp	r0, r1
	bne	.LBB2_18
	b	.LBB2_9
.LBB2_9:
.Ltmp26:
	.loc	5 137 5 is_stmt 1               @ ../Core/Src/can.c:137:5
	b	.LBB2_10
.LBB2_10:
	.loc	5 0 5 is_stmt 0                 @ ../Core/Src/can.c:0:5
	movs	r0, #0
.Ltmp27:
	.loc	5 137 5                         @ ../Core/Src/can.c:137:5
	str	r0, [sp, #28]
	movw	r0, #14400
	movt	r0, #16386
	ldr	r1, [r0]
	orr	r1, r1, #67108864
	str	r1, [r0]
	ldr	r0, [r0]
	and	r0, r0, #67108864
	str	r0, [sp, #28]
	ldr	r0, [sp, #28]
	b	.LBB2_11
.Ltmp28:
.LBB2_11:
	.loc	5 138 29 is_stmt 1              @ ../Core/Src/can.c:138:29
	movw	r0, :lower16:HAL_RCC_CAN1_CLK_ENABLED
	movt	r0, :upper16:HAL_RCC_CAN1_CLK_ENABLED
	ldr	r1, [r0]
	adds	r1, #1
	str	r1, [r0]
.Ltmp29:
	.loc	5 139 8                         @ ../Core/Src/can.c:139:8
	ldr	r0, [r0]
.Ltmp30:
	.loc	5 139 8 is_stmt 0               @ ../Core/Src/can.c:139:8
	cmp	r0, #1
	bne	.LBB2_15
	b	.LBB2_12
.LBB2_12:
.Ltmp31:
	.loc	5 140 7 is_stmt 1               @ ../Core/Src/can.c:140:7
	b	.LBB2_13
.LBB2_13:
	.loc	5 0 7 is_stmt 0                 @ ../Core/Src/can.c:0:7
	movs	r0, #0
.Ltmp32:
	.loc	5 140 7                         @ ../Core/Src/can.c:140:7
	str	r0, [sp, #24]
	movw	r0, #14400
	movt	r0, #16386
	ldr	r1, [r0]
	orr	r1, r1, #33554432
	str	r1, [r0]
	ldr	r0, [r0]
	and	r0, r0, #33554432
	str	r0, [sp, #24]
	ldr	r0, [sp, #24]
	b	.LBB2_14
.Ltmp33:
.LBB2_14:
	.loc	5 141 5 is_stmt 1               @ ../Core/Src/can.c:141:5
	b	.LBB2_15
.Ltmp34:
.LBB2_15:
	.loc	5 143 5                         @ ../Core/Src/can.c:143:5
	b	.LBB2_16
.LBB2_16:
	.loc	5 0 5 is_stmt 0                 @ ../Core/Src/can.c:0:5
	movs	r0, #0
.Ltmp35:
	.loc	5 143 5                         @ ../Core/Src/can.c:143:5
	str	r0, [sp, #20]
	movw	r0, #14384
	movt	r0, #16386
	ldr	r1, [r0]
	orr	r1, r1, #2
	str	r1, [r0]
	ldr	r0, [r0]
	and	r0, r0, #2
	str	r0, [sp, #20]
	ldr	r0, [sp, #20]
	b	.LBB2_17
.Ltmp36:
.LBB2_17:
	.loc	5 0 5                           @ ../Core/Src/can.c:0:5
	movs	r0, #96
	.loc	5 148 25 is_stmt 1              @ ../Core/Src/can.c:148:25
	str	r0, [sp, #40]
	movs	r0, #2
	.loc	5 149 26                        @ ../Core/Src/can.c:149:26
	str	r0, [sp, #44]
	movs	r0, #0
	.loc	5 150 26                        @ ../Core/Src/can.c:150:26
	str	r0, [sp, #4]                    @ 4-byte Spill
	str	r0, [sp, #48]
	movs	r0, #3
	.loc	5 151 27                        @ ../Core/Src/can.c:151:27
	str	r0, [sp, #52]
	movs	r0, #9
	.loc	5 152 31                        @ ../Core/Src/can.c:152:31
	str	r0, [sp, #56]
	movw	r0, #1024
	movt	r0, #16386
	add	r1, sp, #40
	.loc	5 153 5                         @ ../Core/Src/can.c:153:5
	bl	HAL_GPIO_Init
	ldr	r2, [sp, #4]                    @ 4-byte Reload
	movs	r0, #64
	str	r0, [sp, #8]                    @ 4-byte Spill
	movs	r1, #5
	.loc	5 156 5                         @ ../Core/Src/can.c:156:5
	bl	HAL_NVIC_SetPriority
	ldr	r0, [sp, #8]                    @ 4-byte Reload
	.loc	5 157 5                         @ ../Core/Src/can.c:157:5
	bl	HAL_NVIC_EnableIRQ
	.loc	5 161 3                         @ ../Core/Src/can.c:161:3
	b	.LBB2_18
.Ltmp37:
.LBB2_18:
	.loc	5 0 3 is_stmt 0                 @ ../Core/Src/can.c:0:3
	b	.LBB2_19
.LBB2_19:
	.loc	5 162 1 is_stmt 1               @ ../Core/Src/can.c:162:1
	add	sp, #64
	pop	{r7, pc}
.Ltmp38:
.Lfunc_end2:
	.size	HAL_CAN_MspInit, .Lfunc_end2-HAL_CAN_MspInit
	.cfi_endproc
	.cantunwind
	.fnend
                                        @ -- End function
	.section	.text.HAL_CAN_MspDeInit,"ax",%progbits
	.hidden	HAL_CAN_MspDeInit               @ -- Begin function HAL_CAN_MspDeInit
	.globl	HAL_CAN_MspDeInit
	.p2align	2
	.type	HAL_CAN_MspDeInit,%function
	.code	16                              @ @HAL_CAN_MspDeInit
	.thumb_func
HAL_CAN_MspDeInit:
.Lfunc_begin3:
	.loc	5 165 0                         @ ../Core/Src/can.c:165:0
	.fnstart
	.cfi_startproc
@ %bb.0:
	.save	{r7, lr}
	push	{r7, lr}
	.cfi_def_cfa_offset 8
	.cfi_offset lr, -4
	.cfi_offset r7, -8
	.pad	#8
	sub	sp, #8
	.cfi_def_cfa_offset 16
	str	r0, [sp, #4]
.Ltmp39:
	.loc	5 167 6 prologue_end            @ ../Core/Src/can.c:167:6
	ldr	r0, [sp, #4]
	.loc	5 167 17 is_stmt 0              @ ../Core/Src/can.c:167:17
	ldr	r0, [r0]
	movw	r1, #25600
	movt	r1, #16384
.Ltmp40:
	.loc	5 167 6                         @ ../Core/Src/can.c:167:6
	cmp	r0, r1
	bne	.LBB3_4
	b	.LBB3_1
.LBB3_1:
.Ltmp41:
	.loc	5 173 29 is_stmt 1              @ ../Core/Src/can.c:173:29
	movw	r0, :lower16:HAL_RCC_CAN1_CLK_ENABLED
	movt	r0, :upper16:HAL_RCC_CAN1_CLK_ENABLED
	ldr	r1, [r0]
	subs	r1, #1
	str	r1, [r0]
.Ltmp42:
	.loc	5 174 8                         @ ../Core/Src/can.c:174:8
	ldr	r0, [r0]
.Ltmp43:
	.loc	5 174 8 is_stmt 0               @ ../Core/Src/can.c:174:8
	cbnz	r0, .LBB3_3
	b	.LBB3_2
.LBB3_2:
	.loc	5 0 8                           @ ../Core/Src/can.c:0:8
	movw	r1, #14400
	movt	r1, #16386
.Ltmp44:
	.loc	5 175 7 is_stmt 1               @ ../Core/Src/can.c:175:7
	ldr	r0, [r1]
	bic	r0, r0, #33554432
	str	r0, [r1]
	.loc	5 176 5                         @ ../Core/Src/can.c:176:5
	b	.LBB3_3
.Ltmp45:
.LBB3_3:
	.loc	5 0 5 is_stmt 0                 @ ../Core/Src/can.c:0:5
	movw	r0, #3072
	movt	r0, #16386
	movs	r1, #3
	.loc	5 182 5 is_stmt 1               @ ../Core/Src/can.c:182:5
	bl	HAL_GPIO_DeInit
	movs	r0, #20
	.loc	5 185 5                         @ ../Core/Src/can.c:185:5
	bl	HAL_NVIC_DisableIRQ
	.loc	5 189 3                         @ ../Core/Src/can.c:189:3
	b	.LBB3_9
.Ltmp46:
.LBB3_4:
	.loc	5 190 11                        @ ../Core/Src/can.c:190:11
	ldr	r0, [sp, #4]
	.loc	5 190 22 is_stmt 0              @ ../Core/Src/can.c:190:22
	ldr	r0, [r0]
	movw	r1, #26624
	movt	r1, #16384
.Ltmp47:
	.loc	5 190 11                        @ ../Core/Src/can.c:190:11
	cmp	r0, r1
	bne	.LBB3_8
	b	.LBB3_5
.LBB3_5:
	.loc	5 0 11                          @ ../Core/Src/can.c:0:11
	movw	r1, #14400
	movt	r1, #16386
.Ltmp48:
	.loc	5 196 5 is_stmt 1               @ ../Core/Src/can.c:196:5
	ldr	r0, [r1]
	bic	r0, r0, #67108864
	str	r0, [r1]
	.loc	5 197 29                        @ ../Core/Src/can.c:197:29
	movw	r0, :lower16:HAL_RCC_CAN1_CLK_ENABLED
	movt	r0, :upper16:HAL_RCC_CAN1_CLK_ENABLED
	ldr	r1, [r0]
	subs	r1, #1
	str	r1, [r0]
.Ltmp49:
	.loc	5 198 8                         @ ../Core/Src/can.c:198:8
	ldr	r0, [r0]
.Ltmp50:
	.loc	5 198 8 is_stmt 0               @ ../Core/Src/can.c:198:8
	cbnz	r0, .LBB3_7
	b	.LBB3_6
.LBB3_6:
	.loc	5 0 8                           @ ../Core/Src/can.c:0:8
	movw	r1, #14400
	movt	r1, #16386
.Ltmp51:
	.loc	5 199 7 is_stmt 1               @ ../Core/Src/can.c:199:7
	ldr	r0, [r1]
	bic	r0, r0, #33554432
	str	r0, [r1]
	.loc	5 200 5                         @ ../Core/Src/can.c:200:5
	b	.LBB3_7
.Ltmp52:
.LBB3_7:
	.loc	5 0 5 is_stmt 0                 @ ../Core/Src/can.c:0:5
	movw	r0, #1024
	movt	r0, #16386
	movs	r1, #96
	.loc	5 206 5 is_stmt 1               @ ../Core/Src/can.c:206:5
	bl	HAL_GPIO_DeInit
	movs	r0, #64
	.loc	5 209 5                         @ ../Core/Src/can.c:209:5
	bl	HAL_NVIC_DisableIRQ
	.loc	5 213 3                         @ ../Core/Src/can.c:213:3
	b	.LBB3_8
.Ltmp53:
.LBB3_8:
	.loc	5 0 3 is_stmt 0                 @ ../Core/Src/can.c:0:3
	b	.LBB3_9
.LBB3_9:
	.loc	5 214 1 is_stmt 1               @ ../Core/Src/can.c:214:1
	add	sp, #8
	pop	{r7, pc}
.Ltmp54:
.Lfunc_end3:
	.size	HAL_CAN_MspDeInit, .Lfunc_end3-HAL_CAN_MspDeInit
	.cfi_endproc
	.cantunwind
	.fnend
                                        @ -- End function
	.hidden	hcan1                           @ @hcan1
	.type	hcan1,%object
	.section	.bss.hcan1,"aw",%nobits
	.globl	hcan1
	.p2align	2, 0x0
hcan1:
	.zero	40
	.size	hcan1, 40

	.hidden	hcan2                           @ @hcan2
	.type	hcan2,%object
	.section	.bss.hcan2,"aw",%nobits
	.globl	hcan2
	.p2align	2, 0x0
hcan2:
	.zero	40
	.size	hcan2, 40

	.type	HAL_RCC_CAN1_CLK_ENABLED,%object @ @HAL_RCC_CAN1_CLK_ENABLED
	.section	.bss.HAL_RCC_CAN1_CLK_ENABLED,"aw",%nobits
	.p2align	2, 0x0
HAL_RCC_CAN1_CLK_ENABLED:
	.long	0                               @ 0x0
	.size	HAL_RCC_CAN1_CLK_ENABLED, 4

	.file	7 "E:\\RP\\CppTemplate\\MDK-ARM" "../Drivers/STM32F4xx_HAL_Driver/Inc\\stm32f4xx_hal_gpio.h"
	.section	".note.GNU-stack","",%progbits
	.eabi_attribute	30, 6	@ Tag_ABI_optimization_goals
	.ARM_attribute	16, 1	@ Tag_AV_eba