	.text
	.syntax unified
	.eabi_attribute	67, "2.09"	@ Tag_conformance
	.cpu	cortex-m4
	.eabi_attribute	6, 13	@ Tag_CPU_arch
	.eabi_attribute	7, 77	@ Tag_CPU_arch_profile
	.eabi_attribute	8, 0	@ Tag_ARM_ISA_use
	.eabi_attribute	9, 2	@ Tag_THUMB_ISA_use
	.fpu	fpv4-sp-d16
	.eabi_attribute	27, 1	@ Tag_ABI_HardFP_use
	.eabi_attribute	36, 1	@ Tag_FP_HP_extension
	.eabi_attribute	34, 1	@ Tag_CPU_unaligned_access
	.eabi_attribute	17, 1	@ Tag_ABI_PCS_GOT_use
	.eabi_attribute	20, 2	@ Tag_ABI_FP_denormal
	.eabi_attribute	21, 0	@ Tag_ABI_FP_exceptions
	.eabi_attribute	23, 1	@ Tag_ABI_FP_number_model
	.eabi_attribute	24, 1	@ Tag_ABI_align_needed
	.eabi_attribute	25, 1	@ Tag_ABI_align_preserved
	.eabi_attribute	28, 1	@ Tag_ABI_VFP_args
	.eabi_attribute	38, 1	@ Tag_ABI_FP_16bit_format
	.eabi_attribute	18, 2	@ Tag_ABI_PCS_wchar_t
	.eabi_attribute	26, 1	@ Tag_ABI_enum_size
	.eabi_attribute	14, 0	@ Tag_ABI_PCS_R9_use
	.file	"driver.cpp"
	.file	1 "E:\\RP\\CppTemplate\\MDK-ARM" "../Drivers/STM32F4xx_HAL_Driver/Inc\\stm32f4xx_hal_tim.h"
	.file	2 "E:\\RP\\CppTemplate\\MDK-ARM" "../Drivers/STM32F4xx_HAL_Driver/Inc/stm32f4xx_hal_def.h"
	.file	3 "C:\\Keil_v5\\ARM\\ARMCLANG\\Bin\\..\\include" "stdint.h"
	.file	4 "E:\\RP\\CppTemplate\\MDK-ARM" "../Drivers/CMSIS/Device/ST/STM32F4xx/Include/stm32f407xx.h"
	.file	5 "E:\\RP\\CppTemplate\\MDK-ARM" "../Drivers/STM32F4xx_HAL_Driver/Inc\\stm32f4xx_hal_dma.h"
	.file	6 "E:\\RP\\CppTemplate\\MDK-ARM" "../User/drive/inc\\driver_tim.hpp"
	.file	7 "C:\\Keil_v5\\ARM\\ARMCLANG\\Bin\\..\\include" "stddef.h"
	.section	.text.Driver_Init,"ax",%progbits
	.hidden	Driver_Init                     @ -- Begin function Driver_Init
	.globl	Driver_Init
	.p2align	2
	.type	Driver_Init,%function
	.code	16                              @ @Driver_Init
	.thumb_func
Driver_Init:
.Lfunc_begin0:
	.file	8 "E:\\RP\\CppTemplate\\MDK-ARM" "../User/drive/src/driver.cpp"
	.loc	8 21 0                          @ ../User/drive/src/driver.cpp:21:0
	.fnstart
	.cfi_sections .debug_frame
	.cfi_startproc
@ %bb.0:
	.save	{r4, lr}
	push	{r4, lr}
	.cfi_def_cfa_offset 8
	.cfi_offset lr, -4
	.cfi_offset r4, -8
	.pad	#72
	sub	sp, #72
	.cfi_def_cfa_offset 80
.Ltmp0:
	.loc	8 22 2 prologue_end             @ ../User/drive/src/driver.cpp:22:2
	bl	CAN1_Init
.Ltmp1:
	.loc	8 23 2                          @ ../User/drive/src/driver.cpp:23:2
	bl	CAN2_Init
.Ltmp2:
	.loc	8 24 2                          @ ../User/drive/src/driver.cpp:24:2
	bl	_Z9SPI2_Initv
.Ltmp3:
	.loc	8 25 2                          @ ../User/drive/src/driver.cpp:25:2
	bl	USART1_Init
.Ltmp4:
	.loc	8 26 2                          @ ../User/drive/src/driver.cpp:26:2
	bl	USART2_Init
.Ltmp5:
	.loc	8 27 2                          @ ../User/drive/src/driver.cpp:27:2
	bl	USART3_Init
.Ltmp6:
	.loc	8 28 2                          @ ../User/drive/src/driver.cpp:28:2
	bl	USART4_Init
.Ltmp7:
	.loc	8 29 2                          @ ../User/drive/src/driver.cpp:29:2
	bl	USART6_Init
.Ltmp8:
	.loc	6 0 0 is_stmt 0                 @ ../User/drive/inc\driver_tim.hpp:0:0
	movw	r1, :lower16:htim11
	mov	r4, sp
	movt	r1, :upper16:htim11
	mov	r0, r4
	movs	r2, #72
	bl	__aeabi_memcpy4
.Ltmp9:
	@DEBUG_VALUE: Driver_Init:buzzer <- [DW_OP_LLVM_fragment 640 8] 1
	@DEBUG_VALUE: Driver_Init:buzzer <- [DW_OP_LLVM_fragment 608 32] 0
	@DEBUG_VALUE: Driver_Init:buzzer <- [DW_OP_LLVM_fragment 576 32] undef
	@DEBUG_VALUE: PwmInstance:TIM_CHANNEL_x <- 0
	@DEBUG_VALUE: PwmInstance:this <- undef
	.loc	6 31 4 is_stmt 1                @ ../User/drive/inc\driver_tim.hpp:31:4
	mov	r0, r4
	movs	r1, #0
	bl	HAL_TIM_PWM_Start
.Ltmp10:
	.loc	8 31 1 is_stmt 0                @ ../User/drive/src/driver.cpp:31:1
	add	sp, #72
	pop	{r4, pc}
.Ltmp11:
.Lfunc_end0:
	.size	Driver_Init, .Lfunc_end0-Driver_Init
	.cfi_endproc
	.cantunwind
	.fnend
                                        @ -- End function
	.section	".note.GNU-stack","",%progbits
	.eabi_attribute	30, 1	@ Tag_ABI_optimization_goals
	.ARM_attribute	16, 1	@ Tag_AV_eba