	.text
	.syntax unified
	.eabi_attribute	67, "2.09"	@ Tag_conformance
	.cpu	cortex-m4
	.eabi_attribute	6, 13	@ Tag_CPU_arch
	.eabi_attribute	7, 77	@ Tag_CPU_arch_profile
	.eabi_attribute	8, 0	@ Tag_ARM_ISA_use
	.eabi_attribute	9, 2	@ Tag_THUMB_ISA_use
	.fpu	fpv4-sp-d16
	.eabi_attribute	27, 1	@ Tag_ABI_HardFP_use
	.eabi_attribute	36, 1	@ Tag_FP_HP_extension
	.eabi_attribute	34, 1	@ Tag_CPU_unaligned_access
	.eabi_attribute	17, 1	@ Tag_ABI_PCS_GOT_use
	.eabi_attribute	20, 2	@ Tag_ABI_FP_denormal
	.eabi_attribute	21, 0	@ Tag_ABI_FP_exceptions
	.eabi_attribute	23, 1	@ Tag_ABI_FP_number_model
	.eabi_attribute	24, 1	@ Tag_ABI_align_needed
	.eabi_attribute	25, 1	@ Tag_ABI_align_preserved
	.eabi_attribute	28, 1	@ Tag_ABI_VFP_args
	.eabi_attribute	38, 1	@ Tag_ABI_FP_16bit_format
	.eabi_attribute	18, 2	@ Tag_ABI_PCS_wchar_t
	.eabi_attribute	26, 1	@ Tag_ABI_enum_size
	.eabi_attribute	14, 0	@ Tag_ABI_PCS_R9_use
	.file	"driver_haltick.cpp"
	.file	1 "C:\\Keil_v5\\ARM\\ARMCLANG\\Bin\\..\\include" "stdint.h"
	.file	2 "E:\\RP\\CppTemplate\\MDK-ARM" "../User/drive/src/driver_haltick.cpp"
	.file	3 "E:\\RP\\CppTemplate\\MDK-ARM" "../Drivers/CMSIS/Device/ST/STM32F4xx/Include/stm32f407xx.h"
	.file	4 "C:\\Keil_v5\\ARM\\ARMCLANG\\Bin\\..\\include" "stddef.h"
	.section	.text._Z6microsv,"ax",%progbits
	.hidden	_Z6microsv                      @ -- Begin function _Z6microsv
	.globl	_Z6microsv
	.p2align	2
	.type	_Z6microsv,%function
	.code	16                              @ @_Z6microsv
	.thumb_func
_Z6microsv:
.Lfunc_begin0:
	.loc	2 24 0                          @ ../User/drive/src/driver_haltick.cpp:24:0
	.fnstart
	.cfi_sections .debug_frame
	.cfi_startproc
@ %bb.0:
	.save	{r7, lr}
	push	{r7, lr}
	.cfi_def_cfa_offset 8
	.cfi_offset lr, -4
	.cfi_offset r7, -8
	.pad	#8
	sub	sp, #8
	.cfi_def_cfa_offset 16
.Ltmp0:
	.loc	2 26 7 prologue_end             @ ../User/drive/src/driver_haltick.cpp:26:7
	bl	HAL_GetTick
	.loc	2 26 5 is_stmt 0                @ ../User/drive/src/driver_haltick.cpp:26:5
	str	r0, [sp, #4]
	movs	r0, #36
	movt	r0, #16384
	.loc	2 30 13 is_stmt 1               @ ../User/drive/src/driver_haltick.cpp:30:13
	ldr	r0, [r0]
	.loc	2 30 5 is_stmt 0                @ ../User/drive/src/driver_haltick.cpp:30:5
	str	r0, [sp]
	.loc	2 31 13 is_stmt 1               @ ../User/drive/src/driver_haltick.cpp:31:13
	ldr	r0, [sp, #4]
	.loc	2 31 23 is_stmt 0               @ ../User/drive/src/driver_haltick.cpp:31:23
	ldr	r2, [sp]
	mov.w	r1, #1000
	.loc	2 31 21                         @ ../User/drive/src/driver_haltick.cpp:31:21
	mla	r1, r0, r1, r2
	.loc	2 31 11                         @ ../User/drive/src/driver_haltick.cpp:31:11
	movw	r0, :lower16:haltick
	movt	r0, :upper16:haltick
	str	r1, [r0]
	.loc	2 32 9 is_stmt 1                @ ../User/drive/src/driver_haltick.cpp:32:9
	ldr	r0, [r0]
	.loc	2 32 2 is_stmt 0                @ ../User/drive/src/driver_haltick.cpp:32:2
	add	sp, #8
	pop	{r7, pc}
.Ltmp1:
.Lfunc_end0:
	.size	_Z6microsv, .Lfunc_end0-_Z6microsv
	.cfi_endproc
	.cantunwind
	.fnend
                                        @ -- End function
	.section	.text._Z8delay_usj,"ax",%progbits
	.hidden	_Z8delay_usj                    @ -- Begin function _Z8delay_usj
	.globl	_Z8delay_usj
	.p2align	2
	.type	_Z8delay_usj,%function
	.code	16                              @ @_Z8delay_usj
	.thumb_func
_Z8delay_usj:
.Lfunc_begin1:
	.loc	2 35 0 is_stmt 1                @ ../User/drive/src/driver_haltick.cpp:35:0
	.fnstart
	.cfi_startproc
@ %bb.0:
	.save	{r7, lr}
	push	{r7, lr}
	.cfi_def_cfa_offset 8
	.cfi_offset lr, -4
	.cfi_offset r7, -8
	.pad	#8
	sub	sp, #8
	.cfi_def_cfa_offset 16
	str	r0, [sp, #4]
.Ltmp2:
	.loc	2 36 17 prologue_end            @ ../User/drive/src/driver_haltick.cpp:36:17
	bl	_Z6microsv
	.loc	2 36 11 is_stmt 0               @ ../User/drive/src/driver_haltick.cpp:36:11
	str	r0, [sp]
	.loc	2 37 2 is_stmt 1                @ ../User/drive/src/driver_haltick.cpp:37:2
	b	.LBB1_1
.LBB1_1:                                @ =>This Inner Loop Header: Depth=1
	.loc	2 37 9 is_stmt 0                @ ../User/drive/src/driver_haltick.cpp:37:9
	bl	_Z6microsv
	.loc	2 37 20                         @ ../User/drive/src/driver_haltick.cpp:37:20
	ldr	r1, [sp]
	.loc	2 37 18                         @ ../User/drive/src/driver_haltick.cpp:37:18
	subs	r0, r0, r1
	.loc	2 37 27                         @ ../User/drive/src/driver_haltick.cpp:37:27
	ldr	r1, [sp, #4]
	.loc	2 37 2                          @ ../User/drive/src/driver_haltick.cpp:37:2
	cmp	r0, r1
	bhs	.LBB1_3
	b	.LBB1_2
.LBB1_2:                                @   in Loop: Header=BB1_1 Depth=1
	.loc	2 38 3 is_stmt 1                @ ../User/drive/src/driver_haltick.cpp:38:3
	b	.LBB1_1
.LBB1_3:
	.loc	2 39 1                          @ ../User/drive/src/driver_haltick.cpp:39:1
	add	sp, #8
	pop	{r7, pc}
.Ltmp3:
.Lfunc_end1:
	.size	_Z8delay_usj, .Lfunc_end1-_Z8delay_usj
	.cfi_endproc
	.cantunwind
	.fnend
                                        @ -- End function
	.section	.text._Z8delay_msj,"ax",%progbits
	.hidden	_Z8delay_msj                    @ -- Begin function _Z8delay_msj
	.globl	_Z8delay_msj
	.p2align	2
	.type	_Z8delay_msj,%function
	.code	16                              @ @_Z8delay_msj
	.thumb_func
_Z8delay_msj:
.Lfunc_begin2:
	.loc	2 41 0                          @ ../User/drive/src/driver_haltick.cpp:41:0
	.fnstart
	.cfi_startproc
@ %bb.0:
	.save	{r7, lr}
	push	{r7, lr}
	.cfi_def_cfa_offset 8
	.cfi_offset lr, -4
	.cfi_offset r7, -8
	.pad	#8
	sub	sp, #8
	.cfi_def_cfa_offset 16
	str	r0, [sp, #4]
.Ltmp4:
	.loc	2 42 2 prologue_end             @ ../User/drive/src/driver_haltick.cpp:42:2
	b	.LBB2_1
.LBB2_1:                                @ =>This Inner Loop Header: Depth=1
	.loc	2 42 10 is_stmt 0               @ ../User/drive/src/driver_haltick.cpp:42:10
	ldr	r0, [sp, #4]
	subs	r1, r0, #1
	str	r1, [sp, #4]
	.loc	2 42 2                          @ ../User/drive/src/driver_haltick.cpp:42:2
	cbz	r0, .LBB2_3
	b	.LBB2_2
.LBB2_2:                                @   in Loop: Header=BB2_1 Depth=1
	.loc	2 0 2                           @ ../User/drive/src/driver_haltick.cpp:0:2
	mov.w	r0, #1000
	.loc	2 43 3 is_stmt 1                @ ../User/drive/src/driver_haltick.cpp:43:3
	bl	_Z8delay_usj
	.loc	2 42 2                          @ ../User/drive/src/driver_haltick.cpp:42:2
	b	.LBB2_1
.LBB2_3:
	.loc	2 44 1                          @ ../User/drive/src/driver_haltick.cpp:44:1
	add	sp, #8
	pop	{r7, pc}
.Ltmp5:
.Lfunc_end2:
	.size	_Z8delay_msj, .Lfunc_end2-_Z8delay_msj
	.cfi_endproc
	.cantunwind
	.fnend
                                        @ -- End function
	.hidden	haltick                         @ @haltick
	.type	haltick,%object
	.section	.bss.haltick,"aw",%nobits
	.globl	haltick
	.p2align	2, 0x0
haltick:
	.long	0                               @ 0x0
	.size	haltick, 4

	.section	".note.GNU-stack","",%progbits
	.eabi_attribute	30, 6	@ Tag_ABI_optimization_goals
	.ARM_attribute	16, 1	@ Tag_AV_eba