	.text
	.syntax unified
	.eabi_attribute	67, "2.09"	@ Tag_conformance
	.cpu	cortex-m4
	.eabi_attribute	6, 13	@ Tag_CPU_arch
	.eabi_attribute	7, 77	@ Tag_CPU_arch_profile
	.eabi_attribute	8, 0	@ Tag_ARM_ISA_use
	.eabi_attribute	9, 2	@ Tag_THUMB_ISA_use
	.fpu	fpv4-sp-d16
	.eabi_attribute	27, 1	@ Tag_ABI_HardFP_use
	.eabi_attribute	36, 1	@ Tag_FP_HP_extension
	.eabi_attribute	34, 1	@ Tag_CPU_unaligned_access
	.eabi_attribute	17, 1	@ Tag_ABI_PCS_GOT_use
	.eabi_attribute	20, 2	@ Tag_ABI_FP_denormal
	.eabi_attribute	21, 0	@ Tag_ABI_FP_exceptions
	.eabi_attribute	23, 1	@ Tag_ABI_FP_number_model
	.eabi_attribute	24, 1	@ Tag_ABI_align_needed
	.eabi_attribute	25, 1	@ Tag_ABI_align_preserved
	.eabi_attribute	28, 1	@ Tag_ABI_VFP_args
	.eabi_attribute	38, 1	@ Tag_ABI_FP_16bit_format
	.eabi_attribute	18, 2	@ Tag_ABI_PCS_wchar_t
	.eabi_attribute	26, 1	@ Tag_ABI_enum_size
	.eabi_attribute	14, 0	@ Tag_ABI_PCS_R9_use
	.file	"driver_can.cpp"
	.file	1 "C:\\Keil_v5\\ARM\\ARMCLANG\\Bin\\..\\include" "stdint.h"
	.file	2 "E:\\RP\\CppTemplate\\MDK-ARM" "../Drivers/STM32F4xx_HAL_Driver/Inc\\stm32f4xx_hal_can.h"
	.file	3 "E:\\RP\\CppTemplate\\MDK-ARM" "../User/drive/inc\\driver_can.hpp"
	.file	4 "E:\\RP\\CppTemplate\\MDK-ARM" "../User/drive/src/driver_can.cpp"
	.file	5 "E:\\RP\\CppTemplate\\MDK-ARM" "../Drivers/CMSIS/Device/ST/STM32F4xx/Include\\stm32f4xx.h"
	.file	6 "C:\\Keil_v5\\ARM\\ARMCLANG\\Bin\\..\\include" "time.h"
	.file	7 "C:\\Keil_v5\\ARM\\ARMCLANG\\Bin\\..\\include" "stddef.h"
	.file	8 "C:\\Keil_v5\\ARM\\ARMCLANG\\Bin\\..\\include\\libcxx" "stddef.h"
	.file	9 "C:\\Keil_v5\\ARM\\ARMCLANG\\Bin\\..\\include\\libcxx" "cstddef"
	.file	10 "C:\\Keil_v5\\ARM\\ARMCLANG\\Bin\\..\\include\\libcxx" "cstdint"
	.file	11 "C:\\Keil_v5\\ARM\\ARMCLANG\\Bin\\..\\include" "stdlib.h"
	.file	12 "C:\\Keil_v5\\ARM\\ARMCLANG\\Bin\\..\\include\\libcxx" "cstdlib"
	.file	13 "C:\\Keil_v5\\ARM\\ARMCLANG\\Bin\\..\\include\\libcxx" "stdlib.h"
	.file	14 "C:\\Keil_v5\\ARM\\ARMCLANG\\Bin\\..\\include" "math.h"
	.file	15 "C:\\Keil_v5\\ARM\\ARMCLANG\\Bin\\..\\include\\libcxx" "math.h"
	.file	16 "C:\\Keil_v5\\ARM\\ARMCLANG\\Bin\\..\\include\\libcxx" "cmath"
	.file	17 "C:\\Keil_v5\\ARM\\ARMCLANG\\Bin\\..\\include" "wchar.h"
	.file	18 "C:\\Keil_v5\\ARM\\ARMCLANG\\Bin\\..\\include\\libcxx" "__mbstate_t.h"
	.file	19 "C:\\Keil_v5\\ARM\\ARMCLANG\\Bin\\..\\include" "string.h"
	.file	20 "C:\\Keil_v5\\ARM\\ARMCLANG\\Bin\\..\\include\\libcxx" "cstring"
	.file	21 "C:\\Keil_v5\\ARM\\ARMCLANG\\Bin\\..\\include\\libcxx" "string.h"
	.file	22 "C:\\Keil_v5\\ARM\\ARMCLANG\\Bin\\..\\include\\libcxx" "ctime"
	.section	.text._ZN11CANInstanceC2EP21CANInstanceTxConfig_t,"ax",%progbits
	.hidden	_ZN11CANInstanceC2EP21CANInstanceTxConfig_t @ -- Begin function _ZN11CANInstanceC2EP21CANInstanceTxConfig_t
	.globl	_ZN11CANInstanceC2EP21CANInstanceTxConfig_t
	.p2align	2
	.type	_ZN11CANInstanceC2EP21CANInstanceTxConfig_t,%function
	.code	16                              @ @_ZN11CANInstanceC2EP21CANInstanceTxConfig_t
	.thumb_func
_ZN11CANInstanceC2EP21CANInstanceTxConfig_t:
.Lfunc_begin0:
	.loc	4 22 0                          @ ../User/drive/src/driver_can.cpp:22:0
	.fnstart
	.cfi_sections .debug_frame
	.cfi_startproc
@ %bb.0:
	.pad	#8
	sub	sp, #8
	.cfi_def_cfa_offset 8
	str	r0, [sp, #4]
	str	r1, [sp]
	ldr	r0, [sp, #4]
.Ltmp0:
	.loc	4 23 17 prologue_end            @ ../User/drive/src/driver_can.cpp:23:17
	ldr	r1, [sp]
	.loc	4 23 25 is_stmt 0               @ ../User/drive/src/driver_can.cpp:23:25
	ldr	r1, [r1]
	.loc	4 23 15                         @ ../User/drive/src/driver_can.cpp:23:15
	str	r1, [r0]
	.loc	4 24 12 is_stmt 1               @ ../User/drive/src/driver_can.cpp:24:12
	ldr	r1, [sp]
	.loc	4 24 20 is_stmt 0               @ ../User/drive/src/driver_can.cpp:24:20
	ldr	r1, [r1, #4]
	.loc	4 24 10                         @ ../User/drive/src/driver_can.cpp:24:10
	str	r1, [r0, #28]
	.loc	4 25 21 is_stmt 1               @ ../User/drive/src/driver_can.cpp:25:21
	ldr	r1, [r0, #28]
	.loc	4 25 19 is_stmt 0               @ ../User/drive/src/driver_can.cpp:25:19
	str	r1, [r0, #4]
	movs	r1, #0
	.loc	4 26 19 is_stmt 1               @ ../User/drive/src/driver_can.cpp:26:19
	str	r1, [r0, #8]
	movs	r2, #8
	.loc	4 27 17                         @ ../User/drive/src/driver_can.cpp:27:17
	str	r2, [r0, #20]
	.loc	4 28 17                         @ ../User/drive/src/driver_can.cpp:28:17
	str	r1, [r0, #12]
	.loc	4 29 17                         @ ../User/drive/src/driver_can.cpp:29:17
	str	r1, [r0, #16]
.Ltmp1:
	.loc	4 30 1                          @ ../User/drive/src/driver_can.cpp:30:1
	add	sp, #8
	bx	lr
.Ltmp2:
.Lfunc_end0:
	.size	_ZN11CANInstanceC2EP21CANInstanceTxConfig_t, .Lfunc_end0-_ZN11CANInstanceC2EP21CANInstanceTxConfig_t
	.cfi_endproc
	.cantunwind
	.fnend
                                        @ -- End function
	.section	.text._ZN11CANInstanceC2EP19CANInstanceConfig_t,"ax",%progbits
	.hidden	_ZN11CANInstanceC2EP19CANInstanceConfig_t @ -- Begin function _ZN11CANInstanceC2EP19CANInstanceConfig_t
	.globl	_ZN11CANInstanceC2EP19CANInstanceConfig_t
	.p2align	2
	.type	_ZN11CANInstanceC2EP19CANInstanceConfig_t,%function
	.code	16                              @ @_ZN11CANInstanceC2EP19CANInstanceConfig_t
	.thumb_func
_ZN11CANInstanceC2EP19CANInstanceConfig_t:
.Lfunc_begin1:
	.loc	4 32 0                          @ ../User/drive/src/driver_can.cpp:32:0
	.fnstart
	.cfi_startproc
@ %bb.0:
	.pad	#20
	sub	sp, #20
	.cfi_def_cfa_offset 20
	str	r0, [sp, #12]
	str	r1, [sp, #8]
	ldr	r1, [sp, #12]
	str	r1, [sp]                        @ 4-byte Spill
	str	r1, [sp, #16]
.Ltmp3:
	.loc	4 33 17 prologue_end            @ ../User/drive/src/driver_can.cpp:33:17
	ldr	r0, [sp, #8]
	.loc	4 33 25 is_stmt 0               @ ../User/drive/src/driver_can.cpp:33:25
	ldr	r0, [r0]
	.loc	4 33 15                         @ ../User/drive/src/driver_can.cpp:33:15
	str	r0, [r1]
	.loc	4 34 12 is_stmt 1               @ ../User/drive/src/driver_can.cpp:34:12
	ldr	r0, [sp, #8]
	.loc	4 34 20 is_stmt 0               @ ../User/drive/src/driver_can.cpp:34:20
	ldr	r0, [r0, #4]
	.loc	4 34 10                         @ ../User/drive/src/driver_can.cpp:34:10
	str	r0, [r1, #28]
	.loc	4 35 12 is_stmt 1               @ ../User/drive/src/driver_can.cpp:35:12
	ldr	r0, [sp, #8]
	.loc	4 35 20 is_stmt 0               @ ../User/drive/src/driver_can.cpp:35:20
	ldr	r0, [r0, #8]
	.loc	4 35 10                         @ ../User/drive/src/driver_can.cpp:35:10
	str	r0, [r1, #44]
	.loc	4 36 28 is_stmt 1               @ ../User/drive/src/driver_can.cpp:36:28
	ldr	r0, [sp, #8]
	.loc	4 36 36 is_stmt 0               @ ../User/drive/src/driver_can.cpp:36:36
	ldr	r0, [r0, #12]
	.loc	4 36 26                         @ ../User/drive/src/driver_can.cpp:36:26
	str	r0, [r1, #64]
	.loc	4 37 20 is_stmt 1               @ ../User/drive/src/driver_can.cpp:37:20
	ldr	r0, [sp, #8]
	.loc	4 37 28 is_stmt 0               @ ../User/drive/src/driver_can.cpp:37:28
	ldr	r0, [r0, #16]
	.loc	4 37 18                         @ ../User/drive/src/driver_can.cpp:37:18
	str	r0, [r1, #60]
.Ltmp4:
	.loc	4 38 6 is_stmt 1                @ ../User/drive/src/driver_can.cpp:38:6
	movw	r0, :lower16:_ZN11CANInstance12can_ins_cnt_E
	movt	r0, :upper16:_ZN11CANInstance12can_ins_cnt_E
	ldrb	r0, [r0]
.Ltmp5:
	.loc	4 38 6 is_stmt 0                @ ../User/drive/src/driver_can.cpp:38:6
	cmp	r0, #13
	blt	.LBB1_3
	b	.LBB1_1
.LBB1_1:
.Ltmp6:
	.loc	4 39 3 is_stmt 1                @ ../User/drive/src/driver_can.cpp:39:3
	b	.LBB1_2
.LBB1_2:                                @ =>This Inner Loop Header: Depth=1
	.loc	4 40 4                          @ ../User/drive/src/driver_can.cpp:40:4
	b	.LBB1_2
.Ltmp7:
.LBB1_3:
	.loc	4 0 4 is_stmt 0                 @ ../User/drive/src/driver_can.cpp:0:4
	movs	r0, #0
.Ltmp8:
	.loc	4 42 14 is_stmt 1               @ ../User/drive/src/driver_can.cpp:42:14
	str	r0, [sp, #4]
	.loc	4 42 7 is_stmt 0                @ ../User/drive/src/driver_can.cpp:42:7
	b	.LBB1_4
.LBB1_4:                                @ =>This Inner Loop Header: Depth=1
.Ltmp9:
	.loc	4 42 21                         @ ../User/drive/src/driver_can.cpp:42:21
	ldr	r0, [sp, #4]
	.loc	4 42 25                         @ ../User/drive/src/driver_can.cpp:42:25
	movw	r1, :lower16:_ZN11CANInstance12can_ins_cnt_E
	movt	r1, :upper16:_ZN11CANInstance12can_ins_cnt_E
	ldrb	r1, [r1]
.Ltmp10:
	.loc	4 42 2                          @ ../User/drive/src/driver_can.cpp:42:2
	cmp	r0, r1
	bhs	.LBB1_11
	b	.LBB1_5
.LBB1_5:                                @   in Loop: Header=BB1_4 Depth=1
.Ltmp11:
	.loc	4 43 20 is_stmt 1               @ ../User/drive/src/driver_can.cpp:43:20
	ldr	r1, [sp, #4]
	.loc	4 43 7 is_stmt 0                @ ../User/drive/src/driver_can.cpp:43:7
	movw	r0, :lower16:can_instance
	movt	r0, :upper16:can_instance
	ldr.w	r0, [r0, r1, lsl #2]
	.loc	4 43 24                         @ ../User/drive/src/driver_can.cpp:43:24
	ldr	r0, [r0, #44]
	.loc	4 43 34                         @ ../User/drive/src/driver_can.cpp:43:34
	ldr	r1, [sp, #8]
	.loc	4 43 42                         @ ../User/drive/src/driver_can.cpp:43:42
	ldr	r1, [r1, #8]
	.loc	4 43 48                         @ ../User/drive/src/driver_can.cpp:43:48
	cmp	r0, r1
	bne	.LBB1_9
	b	.LBB1_6
.LBB1_6:                                @   in Loop: Header=BB1_4 Depth=1
	.loc	4 44 17 is_stmt 1               @ ../User/drive/src/driver_can.cpp:44:17
	ldr	r1, [sp, #4]
	.loc	4 44 4 is_stmt 0                @ ../User/drive/src/driver_can.cpp:44:4
	movw	r0, :lower16:can_instance
	movt	r0, :upper16:can_instance
	ldr.w	r0, [r0, r1, lsl #2]
	.loc	4 44 21                         @ ../User/drive/src/driver_can.cpp:44:21
	ldr	r0, [r0]
	.loc	4 44 36                         @ ../User/drive/src/driver_can.cpp:44:36
	ldr	r1, [sp, #8]
	.loc	4 44 44                         @ ../User/drive/src/driver_can.cpp:44:44
	ldr	r1, [r1]
.Ltmp12:
	.loc	4 43 7 is_stmt 1                @ ../User/drive/src/driver_can.cpp:43:7
	cmp	r0, r1
	bne	.LBB1_9
	b	.LBB1_7
.LBB1_7:
.Ltmp13:
	.loc	4 45 4                          @ ../User/drive/src/driver_can.cpp:45:4
	b	.LBB1_8
.LBB1_8:                                @ =>This Inner Loop Header: Depth=1
	.loc	4 46 5                          @ ../User/drive/src/driver_can.cpp:46:5
	b	.LBB1_8
.Ltmp14:
.LBB1_9:                                @   in Loop: Header=BB1_4 Depth=1
	.loc	4 48 2                          @ ../User/drive/src/driver_can.cpp:48:2
	b	.LBB1_10
.Ltmp15:
.LBB1_10:                               @   in Loop: Header=BB1_4 Depth=1
	.loc	4 42 53                         @ ../User/drive/src/driver_can.cpp:42:53
	ldr	r0, [sp, #4]
	adds	r0, #1
	str	r0, [sp, #4]
	.loc	4 42 2 is_stmt 0                @ ../User/drive/src/driver_can.cpp:42:2
	b	.LBB1_4
.Ltmp16:
.LBB1_11:
	.loc	4 49 21 is_stmt 1               @ ../User/drive/src/driver_can.cpp:49:21
	ldr	r0, [sp]                        @ 4-byte Reload
	ldr	r1, [r0, #28]
	.loc	4 49 19 is_stmt 0               @ ../User/drive/src/driver_can.cpp:49:19
	str	r1, [r0, #4]
	movs	r1, #0
	.loc	4 50 19 is_stmt 1               @ ../User/drive/src/driver_can.cpp:50:19
	str	r1, [r0, #8]
	movs	r2, #8
	.loc	4 51 17                         @ ../User/drive/src/driver_can.cpp:51:17
	str	r2, [r0, #20]
	.loc	4 52 17                         @ ../User/drive/src/driver_can.cpp:52:17
	str	r1, [r0, #12]
	.loc	4 53 17                         @ ../User/drive/src/driver_can.cpp:53:17
	str	r1, [r0, #16]
	.loc	4 54 40                         @ ../User/drive/src/driver_can.cpp:54:40
	movw	r3, :lower16:_ZN11CANInstance12can_ins_cnt_E
	movt	r3, :upper16:_ZN11CANInstance12can_ins_cnt_E
	ldrb	r2, [r3]
	adds	r1, r2, #1
	strb	r1, [r3]
	.loc	4 54 2 is_stmt 0                @ ../User/drive/src/driver_can.cpp:54:2
	movw	r1, :lower16:can_instance
	movt	r1, :upper16:can_instance
	.loc	4 54 44                         @ ../User/drive/src/driver_can.cpp:54:44
	str.w	r0, [r1, r2, lsl #2]
.Ltmp17:
	.loc	4 55 1 is_stmt 1                @ ../User/drive/src/driver_can.cpp:55:1
	ldr	r0, [sp, #16]
	add	sp, #20
	bx	lr
.Ltmp18:
.Lfunc_end1:
	.size	_ZN11CANInstanceC2EP19CANInstanceConfig_t, .Lfunc_end1-_ZN11CANInstanceC2EP19CANInstanceConfig_t
	.cfi_endproc
	.cantunwind
	.fnend
                                        @ -- End function
	.section	.text._Z9CAN1_Initv,"ax",%progbits
	.hidden	_Z9CAN1_Initv                   @ -- Begin function _Z9CAN1_Initv
	.globl	_Z9CAN1_Initv
	.p2align	2
	.type	_Z9CAN1_Initv,%function
	.code	16                              @ @_Z9CAN1_Initv
	.thumb_func
_Z9CAN1_Initv:
.Lfunc_begin2:
	.loc	4 66 0                          @ ../User/drive/src/driver_can.cpp:66:0
	.fnstart
	.cfi_startproc
@ %bb.0:
	.save	{r7, lr}
	push	{r7, lr}
	.cfi_def_cfa_offset 8
	.cfi_offset lr, -4
	.cfi_offset r7, -8
	.pad	#48
	sub	sp, #48
	.cfi_def_cfa_offset 56
	add	r0, sp, #8
.Ltmp19:
	.loc	4 69 2 prologue_end             @ ../User/drive/src/driver_can.cpp:69:2
	str	r0, [sp]                        @ 4-byte Spill
	bl	_Z20CAN_FilterParamsInitP17CAN_FilterTypeDef
	ldr	r1, [sp]                        @ 4-byte Reload
	.loc	4 70 2                          @ ../User/drive/src/driver_can.cpp:70:2
	movw	r0, :lower16:hcan1
	movt	r0, :upper16:hcan1
	str	r0, [sp, #4]                    @ 4-byte Spill
	bl	HAL_CAN_ConfigFilter
                                        @ kill: def $r1 killed $r0
	.loc	4 72 2                          @ ../User/drive/src/driver_can.cpp:72:2
	ldr	r0, [sp, #4]                    @ 4-byte Reload
	movs	r1, #2
	bl	HAL_CAN_ActivateNotification
                                        @ kill: def $r1 killed $r0
	.loc	4 74 2                          @ ../User/drive/src/driver_can.cpp:74:2
	ldr	r0, [sp, #4]                    @ 4-byte Reload
	bl	HAL_CAN_Start
	.loc	4 75 1                          @ ../User/drive/src/driver_can.cpp:75:1
	add	sp, #48
	pop	{r7, pc}
.Ltmp20:
.Lfunc_end2:
	.size	_Z9CAN1_Initv, .Lfunc_end2-_Z9CAN1_Initv
	.cfi_endproc
	.cantunwind
	.fnend
                                        @ -- End function
	.section	.text._Z20CAN_FilterParamsInitP17CAN_FilterTypeDef,"ax",%progbits
	.hidden	_Z20CAN_FilterParamsInitP17CAN_FilterTypeDef @ -- Begin function _Z20CAN_FilterParamsInitP17CAN_FilterTypeDef
	.globl	_Z20CAN_FilterParamsInitP17CAN_FilterTypeDef
	.p2align	2
	.type	_Z20CAN_FilterParamsInitP17CAN_FilterTypeDef,%function
	.code	16                              @ @_Z20CAN_FilterParamsInitP17CAN_FilterTypeDef
	.thumb_func
_Z20CAN_FilterParamsInitP17CAN_FilterTypeDef:
.Lfunc_begin3:
	.loc	4 96 0                          @ ../User/drive/src/driver_can.cpp:96:0
	.fnstart
	.cfi_startproc
@ %bb.0:
	.pad	#4
	sub	sp, #4
	.cfi_def_cfa_offset 4
	str	r0, [sp]
.Ltmp21:
	.loc	4 97 2 prologue_end             @ ../User/drive/src/driver_can.cpp:97:2
	ldr	r1, [sp]
	movs	r0, #0
	.loc	4 97 30 is_stmt 0               @ ../User/drive/src/driver_can.cpp:97:30
	str	r0, [r1]
	.loc	4 98 2 is_stmt 1                @ ../User/drive/src/driver_can.cpp:98:2
	ldr	r1, [sp]
	.loc	4 98 29 is_stmt 0               @ ../User/drive/src/driver_can.cpp:98:29
	str	r0, [r1, #4]
	.loc	4 99 2 is_stmt 1                @ ../User/drive/src/driver_can.cpp:99:2
	ldr	r1, [sp]
	.loc	4 99 34 is_stmt 0               @ ../User/drive/src/driver_can.cpp:99:34
	str	r0, [r1, #8]
	.loc	4 100 2 is_stmt 1               @ ../User/drive/src/driver_can.cpp:100:2
	ldr	r1, [sp]
	.loc	4 100 33 is_stmt 0              @ ../User/drive/src/driver_can.cpp:100:33
	str	r0, [r1, #12]
	.loc	4 101 2 is_stmt 1               @ ../User/drive/src/driver_can.cpp:101:2
	ldr	r1, [sp]
	.loc	4 101 38 is_stmt 0              @ ../User/drive/src/driver_can.cpp:101:38
	str	r0, [r1, #16]
	.loc	4 102 2 is_stmt 1               @ ../User/drive/src/driver_can.cpp:102:2
	ldr	r1, [sp]
	.loc	4 102 28 is_stmt 0              @ ../User/drive/src/driver_can.cpp:102:28
	str	r0, [r1, #20]
	.loc	4 103 2 is_stmt 1               @ ../User/drive/src/driver_can.cpp:103:2
	ldr	r1, [sp]
	.loc	4 103 28 is_stmt 0              @ ../User/drive/src/driver_can.cpp:103:28
	str	r0, [r1, #24]
	.loc	4 104 2 is_stmt 1               @ ../User/drive/src/driver_can.cpp:104:2
	ldr	r2, [sp]
	movs	r1, #1
	.loc	4 104 29 is_stmt 0              @ ../User/drive/src/driver_can.cpp:104:29
	str	r1, [r2, #28]
	.loc	4 105 2 is_stmt 1               @ ../User/drive/src/driver_can.cpp:105:2
	ldr	r2, [sp]
	.loc	4 105 34 is_stmt 0              @ ../User/drive/src/driver_can.cpp:105:34
	str	r1, [r2, #32]
	.loc	4 106 2 is_stmt 1               @ ../User/drive/src/driver_can.cpp:106:2
	ldr	r1, [sp]
	.loc	4 106 38 is_stmt 0              @ ../User/drive/src/driver_can.cpp:106:38
	str	r0, [r1, #36]
	.loc	4 107 1 is_stmt 1               @ ../User/drive/src/driver_can.cpp:107:1
	add	sp, #4
	bx	lr
.Ltmp22:
.Lfunc_end3:
	.size	_Z20CAN_FilterParamsInitP17CAN_FilterTypeDef, .Lfunc_end3-_Z20CAN_FilterParamsInitP17CAN_FilterTypeDef
	.cfi_endproc
	.cantunwind
	.fnend
                                        @ -- End function
	.section	.text._Z9CAN2_Initv,"ax",%progbits
	.hidden	_Z9CAN2_Initv                   @ -- Begin function _Z9CAN2_Initv
	.globl	_Z9CAN2_Initv
	.p2align	2
	.type	_Z9CAN2_Initv,%function
	.code	16                              @ @_Z9CAN2_Initv
	.thumb_func
_Z9CAN2_Initv:
.Lfunc_begin4:
	.loc	4 81 0                          @ ../User/drive/src/driver_can.cpp:81:0
	.fnstart
	.cfi_startproc
@ %bb.0:
	.save	{r7, lr}
	push	{r7, lr}
	.cfi_def_cfa_offset 8
	.cfi_offset lr, -4
	.cfi_offset r7, -8
	.pad	#48
	sub	sp, #48
	.cfi_def_cfa_offset 56
	add	r0, sp, #8
.Ltmp23:
	.loc	4 84 2 prologue_end             @ ../User/drive/src/driver_can.cpp:84:2
	str	r0, [sp]                        @ 4-byte Spill
	bl	_Z20CAN_FilterParamsInitP17CAN_FilterTypeDef
	ldr	r1, [sp]                        @ 4-byte Reload
	.loc	4 85 2                          @ ../User/drive/src/driver_can.cpp:85:2
	movw	r0, :lower16:hcan2
	movt	r0, :upper16:hcan2
	str	r0, [sp, #4]                    @ 4-byte Spill
	bl	HAL_CAN_ConfigFilter
                                        @ kill: def $r1 killed $r0
	.loc	4 87 2                          @ ../User/drive/src/driver_can.cpp:87:2
	ldr	r0, [sp, #4]                    @ 4-byte Reload
	movs	r1, #2
	bl	HAL_CAN_ActivateNotification
                                        @ kill: def $r1 killed $r0
	.loc	4 89 2                          @ ../User/drive/src/driver_can.cpp:89:2
	ldr	r0, [sp, #4]                    @ 4-byte Reload
	bl	HAL_CAN_Start
	.loc	4 90 1                          @ ../User/drive/src/driver_can.cpp:90:1
	add	sp, #48
	pop	{r7, pc}
.Ltmp24:
.Lfunc_end4:
	.size	_Z9CAN2_Initv, .Lfunc_end4-_Z9CAN2_Initv
	.cfi_endproc
	.cantunwind
	.fnend
                                        @ -- End function
	.section	.text.HAL_CAN_RxFifo0MsgPendingCallback,"ax",%progbits
	.hidden	HAL_CAN_RxFifo0MsgPendingCallback @ -- Begin function HAL_CAN_RxFifo0MsgPendingCallback
	.globl	HAL_CAN_RxFifo0MsgPendingCallback
	.p2align	2
	.type	HAL_CAN_RxFifo0MsgPendingCallback,%function
	.code	16                              @ @HAL_CAN_RxFifo0MsgPendingCallback
	.thumb_func
HAL_CAN_RxFifo0MsgPendingCallback:
.Lfunc_begin5:
	.loc	4 114 0                         @ ../User/drive/src/driver_can.cpp:114:0
	.fnstart
	.cfi_startproc
@ %bb.0:
	.save	{r7, lr}
	push	{r7, lr}
	.cfi_def_cfa_offset 8
	.cfi_offset lr, -4
	.cfi_offset r7, -8
	.pad	#24
	sub	sp, #24
	.cfi_def_cfa_offset 32
	str	r0, [sp, #20]
.Ltmp25:
	.loc	4 115 23 prologue_end           @ ../User/drive/src/driver_can.cpp:115:23
	ldr	r0, [sp, #20]
	.loc	4 115 2 is_stmt 0               @ ../User/drive/src/driver_can.cpp:115:2
	movw	r2, :lower16:hcanRxFrame
	movt	r2, :upper16:hcanRxFrame
	add.w	r3, r2, #28
	movs	r1, #0
	str	r1, [sp, #12]                   @ 4-byte Spill
	bl	HAL_CAN_GetRxMessage
                                        @ kill: def $r1 killed $r0
.Ltmp26:
	.loc	4 116 14 is_stmt 1              @ ../User/drive/src/driver_can.cpp:116:14
	ldr	r0, [sp, #12]                   @ 4-byte Reload
	str	r0, [sp, #16]
	.loc	4 116 7 is_stmt 0               @ ../User/drive/src/driver_can.cpp:116:7
	b	.LBB5_1
.LBB5_1:                                @ =>This Inner Loop Header: Depth=1
.Ltmp27:
	.loc	4 116 21                        @ ../User/drive/src/driver_can.cpp:116:21
	ldr	r0, [sp, #16]
	.loc	4 116 25                        @ ../User/drive/src/driver_can.cpp:116:25
	movw	r1, :lower16:_ZN11CANInstance12can_ins_cnt_E
	movt	r1, :upper16:_ZN11CANInstance12can_ins_cnt_E
	ldrb	r1, [r1]
.Ltmp28:
	.loc	4 116 2                         @ ../User/drive/src/driver_can.cpp:116:2
	cmp	r0, r1
	bhs	.LBB5_9
	b	.LBB5_2
.LBB5_2:                                @   in Loop: Header=BB5_1 Depth=1
.Ltmp29:
	.loc	4 117 16 is_stmt 1              @ ../User/drive/src/driver_can.cpp:117:16
	ldr	r1, [sp, #16]
	.loc	4 117 3 is_stmt 0               @ ../User/drive/src/driver_can.cpp:117:3
	movw	r0, :lower16:can_instance
	movt	r0, :upper16:can_instance
	str	r0, [sp, #8]                    @ 4-byte Spill
	ldr.w	r0, [r0, r1, lsl #2]
	.loc	4 117 20                        @ ../User/drive/src/driver_can.cpp:117:20
	movw	r1, :lower16:hcanRxFrame
	movt	r1, :upper16:hcanRxFrame
	adds	r1, #28
	bl	_ZN11CANInstance12RxBuffUpdateEPh
	ldr	r0, [sp, #8]                    @ 4-byte Reload
.Ltmp30:
	.loc	4 118 20 is_stmt 1              @ ../User/drive/src/driver_can.cpp:118:20
	ldr	r1, [sp, #16]
	.loc	4 118 7 is_stmt 0               @ ../User/drive/src/driver_can.cpp:118:7
	ldr.w	r0, [r0, r1, lsl #2]
	.loc	4 118 24                        @ ../User/drive/src/driver_can.cpp:118:24
	bl	_ZN11CANInstance12GetCANHandleEv
	.loc	4 118 42                        @ ../User/drive/src/driver_can.cpp:118:42
	ldr	r1, [sp, #20]
	.loc	4 118 47                        @ ../User/drive/src/driver_can.cpp:118:47
	cmp	r0, r1
	bne	.LBB5_7
	b	.LBB5_3
.LBB5_3:                                @   in Loop: Header=BB5_1 Depth=1
	.loc	4 119 19 is_stmt 1              @ ../User/drive/src/driver_can.cpp:119:19
	ldr	r1, [sp, #16]
	.loc	4 119 6 is_stmt 0               @ ../User/drive/src/driver_can.cpp:119:6
	movw	r0, :lower16:can_instance
	movt	r0, :upper16:can_instance
	ldr.w	r0, [r0, r1, lsl #2]
	.loc	4 119 23                        @ ../User/drive/src/driver_can.cpp:119:23
	bl	_ZN11CANInstance7GetRxIdEv
	.loc	4 119 55                        @ ../User/drive/src/driver_can.cpp:119:55
	movw	r1, :lower16:hcanRxFrame
	movt	r1, :upper16:hcanRxFrame
	ldr	r1, [r1]
.Ltmp31:
	.loc	4 118 7 is_stmt 1               @ ../User/drive/src/driver_can.cpp:118:7
	cmp	r0, r1
	bne	.LBB5_7
	b	.LBB5_4
.LBB5_4:
.Ltmp32:
	.loc	4 120 21                        @ ../User/drive/src/driver_can.cpp:120:21
	ldr	r1, [sp, #16]
	.loc	4 120 8 is_stmt 0               @ ../User/drive/src/driver_can.cpp:120:8
	movw	r0, :lower16:can_instance
	movt	r0, :upper16:can_instance
	ldr.w	r0, [r0, r1, lsl #2]
	.loc	4 120 25                        @ ../User/drive/src/driver_can.cpp:120:25
	ldr	r0, [r0, #64]
.Ltmp33:
	.loc	4 120 8                         @ ../User/drive/src/driver_can.cpp:120:8
	cbz	r0, .LBB5_6
	b	.LBB5_5
.LBB5_5:
.Ltmp34:
	.loc	4 121 18 is_stmt 1              @ ../User/drive/src/driver_can.cpp:121:18
	ldr	r1, [sp, #16]
	.loc	4 121 5 is_stmt 0               @ ../User/drive/src/driver_can.cpp:121:5
	movw	r0, :lower16:can_instance
	movt	r0, :upper16:can_instance
	str	r0, [sp, #4]                    @ 4-byte Spill
	ldr.w	r0, [r0, r1, lsl #2]
	.loc	4 121 57                        @ ../User/drive/src/driver_can.cpp:121:57
	movw	r1, :lower16:hcanRxFrame
	movt	r1, :upper16:hcanRxFrame
	str	r1, [sp]                        @ 4-byte Spill
	ldr	r1, [r1, #16]
	.loc	4 121 22                        @ ../User/drive/src/driver_can.cpp:121:22
	bl	_ZN11CANInstance15SetRxDataLengthEj
	ldr	r1, [sp]                        @ 4-byte Reload
	ldr	r0, [sp, #4]                    @ 4-byte Reload
	.loc	4 122 18 is_stmt 1              @ ../User/drive/src/driver_can.cpp:122:18
	ldr	r2, [sp, #16]
	.loc	4 122 5 is_stmt 0               @ ../User/drive/src/driver_can.cpp:122:5
	ldr.w	r0, [r0, r2, lsl #2]
	.loc	4 122 22                        @ ../User/drive/src/driver_can.cpp:122:22
	adds	r1, #28
	bl	_ZN11CANInstance12RxBuffUpdateEPh
	ldr	r0, [sp, #4]                    @ 4-byte Reload
	.loc	4 123 18 is_stmt 1              @ ../User/drive/src/driver_can.cpp:123:18
	ldr	r1, [sp, #16]
	.loc	4 123 5 is_stmt 0               @ ../User/drive/src/driver_can.cpp:123:5
	ldr.w	r0, [r0, r1, lsl #2]
	.loc	4 123 22                        @ ../User/drive/src/driver_can.cpp:123:22
	ldr	r1, [r0, #64]
	.loc	4 123 5                         @ ../User/drive/src/driver_can.cpp:123:5
	blx	r1
	.loc	4 124 4 is_stmt 1               @ ../User/drive/src/driver_can.cpp:124:4
	b	.LBB5_6
.Ltmp35:
.LBB5_6:
	.loc	4 125 4                         @ ../User/drive/src/driver_can.cpp:125:4
	b	.LBB5_9
.Ltmp36:
.LBB5_7:                                @   in Loop: Header=BB5_1 Depth=1
	.loc	4 127 2                         @ ../User/drive/src/driver_can.cpp:127:2
	b	.LBB5_8
.Ltmp37:
.LBB5_8:                                @   in Loop: Header=BB5_1 Depth=1
	.loc	4 116 53                        @ ../User/drive/src/driver_can.cpp:116:53
	ldr	r0, [sp, #16]
	adds	r0, #1
	str	r0, [sp, #16]
	.loc	4 116 2 is_stmt 0               @ ../User/drive/src/driver_can.cpp:116:2
	b	.LBB5_1
.Ltmp38:
.LBB5_9:
	.loc	4 128 1 is_stmt 1               @ ../User/drive/src/driver_can.cpp:128:1
	add	sp, #24
	pop	{r7, pc}
.Ltmp39:
.Lfunc_end5:
	.size	HAL_CAN_RxFifo0MsgPendingCallback, .Lfunc_end5-HAL_CAN_RxFifo0MsgPendingCallback
	.cfi_endproc
	.cantunwind
	.fnend
                                        @ -- End function
	.section	.text._ZN11CANInstance12RxBuffUpdateEPh,"axG",%progbits,_ZN11CANInstance12RxBuffUpdateEPh,comdat
	.hidden	_ZN11CANInstance12RxBuffUpdateEPh @ -- Begin function _ZN11CANInstance12RxBuffUpdateEPh
	.weak	_ZN11CANInstance12RxBuffUpdateEPh
	.p2align	2
	.type	_ZN11CANInstance12RxBuffUpdateEPh,%function
	.code	16                              @ @_ZN11CANInstance12RxBuffUpdateEPh
	.thumb_func
_ZN11CANInstance12RxBuffUpdateEPh:
.Lfunc_begin6:
	.loc	3 120 0                         @ ../User/drive/inc\driver_can.hpp:120:0
	.fnstart
	.cfi_startproc
@ %bb.0:
	.save	{r7, lr}
	push	{r7, lr}
	.cfi_def_cfa_offset 8
	.cfi_offset lr, -4
	.cfi_offset r7, -8
	.pad	#8
	sub	sp, #8
	.cfi_def_cfa_offset 16
	str	r0, [sp, #4]
	str	r1, [sp]
	ldr	r2, [sp, #4]
.Ltmp40:
	.loc	3 121 10 prologue_end           @ ../User/drive/inc\driver_can.hpp:121:10
	add.w	r0, r2, #52
	.loc	3 121 20 is_stmt 0              @ ../User/drive/inc\driver_can.hpp:121:20
	ldr	r1, [sp]
	.loc	3 121 29                        @ ../User/drive/inc\driver_can.hpp:121:29
	ldr	r2, [r2, #48]
	.loc	3 121 3                         @ ../User/drive/inc\driver_can.hpp:121:3
	bl	__aeabi_memcpy
	.loc	3 122 2 is_stmt 1               @ ../User/drive/inc\driver_can.hpp:122:2
	add	sp, #8
	pop	{r7, pc}
.Ltmp41:
.Lfunc_end6:
	.size	_ZN11CANInstance12RxBuffUpdateEPh, .Lfunc_end6-_ZN11CANInstance12RxBuffUpdateEPh
	.cfi_endproc
	.cantunwind
	.fnend
                                        @ -- End function
	.section	.text._ZN11CANInstance12GetCANHandleEv,"axG",%progbits,_ZN11CANInstance12GetCANHandleEv,comdat
	.hidden	_ZN11CANInstance12GetCANHandleEv @ -- Begin function _ZN11CANInstance12GetCANHandleEv
	.weak	_ZN11CANInstance12GetCANHandleEv
	.p2align	2
	.type	_ZN11CANInstance12GetCANHandleEv,%function
	.code	16                              @ @_ZN11CANInstance12GetCANHandleEv
	.thumb_func
_ZN11CANInstance12GetCANHandleEv:
.Lfunc_begin7:
	.loc	3 92 0                          @ ../User/drive/inc\driver_can.hpp:92:0
	.fnstart
	.cfi_startproc
@ %bb.0:
	.pad	#4
	sub	sp, #4
	.cfi_def_cfa_offset 4
	str	r0, [sp]
	ldr	r0, [sp]
.Ltmp42:
	.loc	3 93 10 prologue_end            @ ../User/drive/inc\driver_can.hpp:93:10
	ldr	r0, [r0]
	.loc	3 93 3 is_stmt 0                @ ../User/drive/inc\driver_can.hpp:93:3
	add	sp, #4
	bx	lr
.Ltmp43:
.Lfunc_end7:
	.size	_ZN11CANInstance12GetCANHandleEv, .Lfunc_end7-_ZN11CANInstance12GetCANHandleEv
	.cfi_endproc
	.cantunwind
	.fnend
                                        @ -- End function
	.section	.text._ZN11CANInstance7GetRxIdEv,"axG",%progbits,_ZN11CANInstance7GetRxIdEv,comdat
	.hidden	_ZN11CANInstance7GetRxIdEv      @ -- Begin function _ZN11CANInstance7GetRxIdEv
	.weak	_ZN11CANInstance7GetRxIdEv
	.p2align	2
	.type	_ZN11CANInstance7GetRxIdEv,%function
	.code	16                              @ @_ZN11CANInstance7GetRxIdEv
	.thumb_func
_ZN11CANInstance7GetRxIdEv:
.Lfunc_begin8:
	.loc	3 116 0 is_stmt 1               @ ../User/drive/inc\driver_can.hpp:116:0
	.fnstart
	.cfi_startproc
@ %bb.0:
	.pad	#4
	sub	sp, #4
	.cfi_def_cfa_offset 4
	str	r0, [sp]
	ldr	r0, [sp]
.Ltmp44:
	.loc	3 117 10 prologue_end           @ ../User/drive/inc\driver_can.hpp:117:10
	ldr	r0, [r0, #44]
	.loc	3 117 3 is_stmt 0               @ ../User/drive/inc\driver_can.hpp:117:3
	add	sp, #4
	bx	lr
.Ltmp45:
.Lfunc_end8:
	.size	_ZN11CANInstance7GetRxIdEv, .Lfunc_end8-_ZN11CANInstance7GetRxIdEv
	.cfi_endproc
	.cantunwind
	.fnend
                                        @ -- End function
	.section	.text._ZN11CANInstance15SetRxDataLengthEj,"axG",%progbits,_ZN11CANInstance15SetRxDataLengthEj,comdat
	.hidden	_ZN11CANInstance15SetRxDataLengthEj @ -- Begin function _ZN11CANInstance15SetRxDataLengthEj
	.weak	_ZN11CANInstance15SetRxDataLengthEj
	.p2align	2
	.type	_ZN11CANInstance15SetRxDataLengthEj,%function
	.code	16                              @ @_ZN11CANInstance15SetRxDataLengthEj
	.thumb_func
_ZN11CANInstance15SetRxDataLengthEj:
.Lfunc_begin9:
	.loc	3 86 0 is_stmt 1                @ ../User/drive/inc\driver_can.hpp:86:0
	.fnstart
	.cfi_startproc
@ %bb.0:
	.pad	#12
	sub	sp, #12
	.cfi_def_cfa_offset 12
	str	r0, [sp, #8]
	str	r1, [sp, #4]
	ldr	r0, [sp, #8]
.Ltmp46:
	.loc	3 87 7 prologue_end             @ ../User/drive/inc\driver_can.hpp:87:7
	str	r0, [sp]                        @ 4-byte Spill
	ldr	r0, [sp, #4]
	.loc	3 87 19 is_stmt 0               @ ../User/drive/inc\driver_can.hpp:87:19
	cmp	r0, #8
	bhi	.LBB9_3
	b	.LBB9_1
.LBB9_1:
	.loc	3 87 22                         @ ../User/drive/inc\driver_can.hpp:87:22
	ldr	r0, [sp, #4]
.Ltmp47:
	.loc	3 87 7                          @ ../User/drive/inc\driver_can.hpp:87:7
	cbz	r0, .LBB9_3
	b	.LBB9_2
.LBB9_2:
.Ltmp48:
	.loc	3 88 14 is_stmt 1               @ ../User/drive/inc\driver_can.hpp:88:14
	ldr	r1, [sp]                        @ 4-byte Reload
	ldr	r0, [sp, #4]
	.loc	3 88 12 is_stmt 0               @ ../User/drive/inc\driver_can.hpp:88:12
	str	r0, [r1, #48]
	.loc	3 89 3 is_stmt 1                @ ../User/drive/inc\driver_can.hpp:89:3
	b	.LBB9_3
.Ltmp49:
.LBB9_3:
	.loc	3 90 2                          @ ../User/drive/inc\driver_can.hpp:90:2
	add	sp, #12
	bx	lr
.Ltmp50:
.Lfunc_end9:
	.size	_ZN11CANInstance15SetRxDataLengthEj, .Lfunc_end9-_ZN11CANInstance15SetRxDataLengthEj
	.cfi_endproc
	.cantunwind
	.fnend
                                        @ -- End function
	.hidden	hcanRxFrame                     @ @hcanRxFrame
	.type	hcanRxFrame,%object
	.section	.bss.hcanRxFrame,"aw",%nobits
	.globl	hcanRxFrame
	.p2align	2, 0x0
hcanRxFrame:
	.zero	36
	.size	hcanRxFrame, 36

	.hidden	CAN_TxHeadeType                 @ @CAN_TxHeadeType
	.type	CAN_TxHeadeType,%object
	.section	.bss.CAN_TxHeadeType,"aw",%nobits
	.globl	CAN_TxHeadeType
	.p2align	2, 0x0
CAN_TxHeadeType:
	.zero	24
	.size	CAN_TxHeadeType, 24

	.hidden	_ZN11CANInstance12can_ins_cnt_E @ @_ZN11CANInstance12can_ins_cnt_E
	.type	_ZN11CANInstance12can_ins_cnt_E,%object
	.section	.bss._ZN11CANInstance12can_ins_cnt_E,"aw",%nobits
	.globl	_ZN11CANInstance12can_ins_cnt_E
_ZN11CANInstance12can_ins_cnt_E:
	.byte	0                               @ 0x0
	.size	_ZN11CANInstance12can_ins_cnt_E, 1

	.hidden	_ZN11CANInstance16can_ins_cnt_max_E @ @_ZN11CANInstance16can_ins_cnt_max_E
	.type	_ZN11CANInstance16can_ins_cnt_max_E,%object
	.section	.rodata._ZN11CANInstance16can_ins_cnt_max_E,"a",%progbits
	.globl	_ZN11CANInstance16can_ins_cnt_max_E
_ZN11CANInstance16can_ins_cnt_max_E:
	.byte	12                              @ 0xc
	.size	_ZN11CANInstance16can_ins_cnt_max_E, 1

	.hidden	_ZN11CANInstance19can_tx_timecnt_max_E @ @_ZN11CANInstance19can_tx_timecnt_max_E
	.type	_ZN11CANInstance19can_tx_timecnt_max_E,%object
	.section	.rodata._ZN11CANInstance19can_tx_timecnt_max_E,"a",%progbits
	.globl	_ZN11CANInstance19can_tx_timecnt_max_E
	.p2align	2, 0x0
_ZN11CANInstance19can_tx_timecnt_max_E:
	.long	1                               @ 0x1
	.size	_ZN11CANInstance19can_tx_timecnt_max_E, 4

	.hidden	can_instance                    @ @can_instance
	.type	can_instance,%object
	.section	.bss.can_instance,"aw",%nobits
	.globl	can_instance
	.p2align	2, 0x0
can_instance:
	.zero	48
	.size	can_instance, 48

	.section	".note.GNU-stack","",%progbits
	.eabi_attribute	30, 6	@ Tag_ABI_optimization_goals
	.ARM_attribute	16, 1	@ Tag_AV_eba