	.text
	.syntax unified
	.eabi_attribute	67, "2.09"	@ Tag_conformance
	.cpu	cortex-m4
	.eabi_attribute	6, 13	@ Tag_CPU_arch
	.eabi_attribute	7, 77	@ Tag_CPU_arch_profile
	.eabi_attribute	8, 0	@ Tag_ARM_ISA_use
	.eabi_attribute	9, 2	@ Tag_THUMB_ISA_use
	.fpu	fpv4-sp-d16
	.eabi_attribute	27, 1	@ Tag_ABI_HardFP_use
	.eabi_attribute	36, 1	@ Tag_FP_HP_extension
	.eabi_attribute	34, 1	@ Tag_CPU_unaligned_access
	.eabi_attribute	17, 1	@ Tag_ABI_PCS_GOT_use
	.eabi_attribute	20, 2	@ Tag_ABI_FP_denormal
	.eabi_attribute	21, 0	@ Tag_ABI_FP_exceptions
	.eabi_attribute	23, 1	@ Tag_ABI_FP_number_model
	.eabi_attribute	24, 1	@ Tag_ABI_align_needed
	.eabi_attribute	25, 1	@ Tag_ABI_align_preserved
	.eabi_attribute	28, 1	@ Tag_ABI_VFP_args
	.eabi_attribute	38, 1	@ Tag_ABI_FP_16bit_format
	.eabi_attribute	18, 2	@ Tag_ABI_PCS_wchar_t
	.eabi_attribute	26, 1	@ Tag_ABI_enum_size
	.eabi_attribute	14, 0	@ Tag_ABI_PCS_R9_use
	.file	"freertos.c"
	.file	1 "E:\\RP\\CppTemplate\\MDK-ARM" "../Core/Src/freertos.c"
	.file	2 "E:\\RP\\CppTemplate\\MDK-ARM" "../Middlewares/Third_Party/FreeRTOS/Source/include/task.h"
	.file	3 "E:\\RP\\CppTemplate\\MDK-ARM" "../Middlewares/Third_Party/FreeRTOS/Source/CMSIS_RTOS\\cmsis_os.h"
	.file	4 "E:\\RP\\CppTemplate\\MDK-ARM" "../Middlewares/Third_Party/FreeRTOS/Source/include\\FreeRTOS.h"
	.file	5 "C:\\Keil_v5\\ARM\\ARMCLANG\\Bin\\..\\include" "stdint.h"
	.file	6 "E:\\RP\\CppTemplate\\MDK-ARM" "../Middlewares/Third_Party/FreeRTOS/Source/portable/RVDS/ARM_CM4F\\portmacro.h"
	.section	.text.vApplicationGetIdleTaskMemory,"ax",%progbits
	.hidden	vApplicationGetIdleTaskMemory   @ -- Begin function vApplicationGetIdleTaskMemory
	.globl	vApplicationGetIdleTaskMemory
	.p2align	2
	.type	vApplicationGetIdleTaskMemory,%function
	.code	16                              @ @vApplicationGetIdleTaskMemory
	.thumb_func
vApplicationGetIdleTaskMemory:
.Lfunc_begin0:
	.loc	1 75 0                          @ ../Core/Src/freertos.c:75:0
	.fnstart
	.cfi_sections .debug_frame
	.cfi_startproc
@ %bb.0:
	.pad	#12
	sub	sp, #12
	.cfi_def_cfa_offset 12
	str	r0, [sp, #8]
	str	r1, [sp, #4]
	str	r2, [sp]
.Ltmp0:
	.loc	1 76 4 prologue_end             @ ../Core/Src/freertos.c:76:4
	ldr	r1, [sp, #8]
	.loc	1 76 25 is_stmt 0               @ ../Core/Src/freertos.c:76:25
	movw	r0, :lower16:xIdleTaskTCBBuffer
	movt	r0, :upper16:xIdleTaskTCBBuffer
	str	r0, [r1]
	.loc	1 77 4 is_stmt 1                @ ../Core/Src/freertos.c:77:4
	ldr	r1, [sp, #4]
	.loc	1 77 27 is_stmt 0               @ ../Core/Src/freertos.c:77:27
	movw	r0, :lower16:xIdleStack
	movt	r0, :upper16:xIdleStack
	str	r0, [r1]
	.loc	1 78 4 is_stmt 1                @ ../Core/Src/freertos.c:78:4
	ldr	r1, [sp]
	movs	r0, #128
	.loc	1 78 25 is_stmt 0               @ ../Core/Src/freertos.c:78:25
	str	r0, [r1]
	.loc	1 80 1 is_stmt 1                @ ../Core/Src/freertos.c:80:1
	add	sp, #12
	bx	lr
.Ltmp1:
.Lfunc_end0:
	.size	vApplicationGetIdleTaskMemory, .Lfunc_end0-vApplicationGetIdleTaskMemory
	.cfi_endproc
	.cantunwind
	.fnend
                                        @ -- End function
	.section	.text.MX_FREERTOS_Init,"ax",%progbits
	.hidden	MX_FREERTOS_Init                @ -- Begin function MX_FREERTOS_Init
	.globl	MX_FREERTOS_Init
	.p2align	2
	.type	MX_FREERTOS_Init,%function
	.code	16                              @ @MX_FREERTOS_Init
	.thumb_func
MX_FREERTOS_Init:
.Lfunc_begin1:
	.loc	1 88 0                          @ ../Core/Src/freertos.c:88:0
	.fnstart
	.cfi_startproc
@ %bb.0:
	.save	{r4, r5, r7, lr}
	push	{r4, r5, r7, lr}
	.cfi_def_cfa_offset 16
	.cfi_offset lr, -4
	.cfi_offset r7, -8
	.cfi_offset r5, -12
	.cfi_offset r4, -16
	.pad	#120
	sub	sp, #120
	.cfi_def_cfa_offset 136
.Ltmp2:
	.loc	1 111 3 prologue_end            @ ../Core/Src/freertos.c:111:3
	movw	r0, :lower16:.L__const.MX_FREERTOS_Init.os_thread_def_defaultTask
	movt	r0, :upper16:.L__const.MX_FREERTOS_Init.os_thread_def_defaultTask
	ldr	r1, [r0]
	ldr	r2, [r0, #4]
	ldr	r3, [r0, #8]
	ldr.w	r12, [r0, #12]
	ldr.w	lr, [r0, #16]
	ldr	r4, [r0, #20]
	str	r4, [sp, #112]
	str.w	lr, [sp, #108]
	str.w	r12, [sp, #104]
	str	r3, [sp, #100]
	str	r2, [sp, #96]
	str	r1, [sp, #92]
	ldr	r0, [r0, #24]
	str	r0, [sp, #116]
	add	r0, sp, #92
	movs	r1, #0
	.loc	1 112 23                        @ ../Core/Src/freertos.c:112:23
	str	r1, [sp, #4]                    @ 4-byte Spill
	bl	osThreadCreate
	ldr	r1, [sp, #4]                    @ 4-byte Reload
	.loc	1 112 21 is_stmt 0              @ ../Core/Src/freertos.c:112:21
	movw	r2, :lower16:defaultTaskHandle
	movt	r2, :upper16:defaultTaskHandle
	str	r0, [r2]
	.loc	1 115 3 is_stmt 1               @ ../Core/Src/freertos.c:115:3
	movw	r0, :lower16:.L__const.MX_FREERTOS_Init.os_thread_def_ControlTask
	movt	r0, :upper16:.L__const.MX_FREERTOS_Init.os_thread_def_ControlTask
	ldr	r2, [r0]
	ldr	r3, [r0, #4]
	ldr.w	r12, [r0, #8]
	ldr.w	lr, [r0, #12]
	ldr	r4, [r0, #16]
	ldr	r5, [r0, #20]
	str	r5, [sp, #84]
	str	r4, [sp, #80]
	str.w	lr, [sp, #76]
	str.w	r12, [sp, #72]
	str	r3, [sp, #68]
	str	r2, [sp, #64]
	ldr	r0, [r0, #24]
	str	r0, [sp, #88]
	add	r0, sp, #64
	.loc	1 116 23                        @ ../Core/Src/freertos.c:116:23
	bl	osThreadCreate
	ldr	r1, [sp, #4]                    @ 4-byte Reload
	.loc	1 116 21 is_stmt 0              @ ../Core/Src/freertos.c:116:21
	movw	r2, :lower16:ControlTaskHandle
	movt	r2, :upper16:ControlTaskHandle
	str	r0, [r2]
	.loc	1 119 3 is_stmt 1               @ ../Core/Src/freertos.c:119:3
	movw	r0, :lower16:.L__const.MX_FREERTOS_Init.os_thread_def_HeartBeatTask
	movt	r0, :upper16:.L__const.MX_FREERTOS_Init.os_thread_def_HeartBeatTask
	ldr	r2, [r0]
	ldr	r3, [r0, #4]
	ldr.w	r12, [r0, #8]
	ldr.w	lr, [r0, #12]
	ldr	r4, [r0, #16]
	ldr	r5, [r0, #20]
	str	r5, [sp, #56]
	str	r4, [sp, #52]
	str.w	lr, [sp, #48]
	str.w	r12, [sp, #44]
	str	r3, [sp, #40]
	str	r2, [sp, #36]
	ldr	r0, [r0, #24]
	str	r0, [sp, #60]
	add	r0, sp, #36
	.loc	1 120 25                        @ ../Core/Src/freertos.c:120:25
	bl	osThreadCreate
	ldr	r1, [sp, #4]                    @ 4-byte Reload
	.loc	1 120 23 is_stmt 0              @ ../Core/Src/freertos.c:120:23
	movw	r2, :lower16:HeartBeatTaskHandle
	movt	r2, :upper16:HeartBeatTaskHandle
	str	r0, [r2]
	.loc	1 123 3 is_stmt 1               @ ../Core/Src/freertos.c:123:3
	movw	r0, :lower16:.L__const.MX_FREERTOS_Init.os_thread_def_RealTimeTask
	movt	r0, :upper16:.L__const.MX_FREERTOS_Init.os_thread_def_RealTimeTask
	ldr	r2, [r0]
	ldr	r3, [r0, #4]
	ldr.w	r12, [r0, #8]
	ldr.w	lr, [r0, #12]
	ldr	r4, [r0, #16]
	ldr	r5, [r0, #20]
	str	r5, [sp, #28]
	str	r4, [sp, #24]
	str.w	lr, [sp, #20]
	str.w	r12, [sp, #16]
	str	r3, [sp, #12]
	str	r2, [sp, #8]
	ldr	r0, [r0, #24]
	str	r0, [sp, #32]
	add	r0, sp, #8
	.loc	1 124 24                        @ ../Core/Src/freertos.c:124:24
	bl	osThreadCreate
	.loc	1 124 22 is_stmt 0              @ ../Core/Src/freertos.c:124:22
	movw	r1, :lower16:RealTimeTaskHandle
	movt	r1, :upper16:RealTimeTaskHandle
	str	r0, [r1]
	.loc	1 130 1 is_stmt 1               @ ../Core/Src/freertos.c:130:1
	add	sp, #120
	pop	{r4, r5, r7, pc}
.Ltmp3:
.Lfunc_end1:
	.size	MX_FREERTOS_Init, .Lfunc_end1-MX_FREERTOS_Init
	.cfi_endproc
	.cantunwind
	.fnend
                                        @ -- End function
	.section	.text.StartDefaultTask,"ax",%progbits
	.hidden	StartDefaultTask                @ -- Begin function StartDefaultTask
	.globl	StartDefaultTask
	.p2align	2
	.type	StartDefaultTask,%function
	.code	16                              @ @StartDefaultTask
	.thumb_func
StartDefaultTask:
.Lfunc_begin2:
	.loc	1 140 0                         @ ../Core/Src/freertos.c:140:0
	.fnstart
	.cfi_startproc
@ %bb.0:
	.save	{r7, lr}
	push	{r7, lr}
	.cfi_def_cfa_offset 8
	.cfi_offset lr, -4
	.cfi_offset r7, -8
	.pad	#8
	sub	sp, #8
	.cfi_def_cfa_offset 16
	str	r0, [sp, #4]
.Ltmp4:
	.loc	1 143 3 prologue_end            @ ../Core/Src/freertos.c:143:3
	b	.LBB2_1
.LBB2_1:                                @ =>This Inner Loop Header: Depth=1
	.loc	1 0 3 is_stmt 0                 @ ../Core/Src/freertos.c:0:3
	movs	r0, #1
.Ltmp5:
	.loc	1 145 5 is_stmt 1               @ ../Core/Src/freertos.c:145:5
	bl	osDelay
.Ltmp6:
	.loc	1 143 3                         @ ../Core/Src/freertos.c:143:3
	b	.LBB2_1
.Ltmp7:
.Lfunc_end2:
	.size	StartDefaultTask, .Lfunc_end2-StartDefaultTask
	.cfi_endproc
	.cantunwind
	.fnend
                                        @ -- End function
	.section	.text.StartControlTask,"ax",%progbits
	.hidden	StartControlTask                @ -- Begin function StartControlTask
	.weak	StartControlTask
	.p2align	2
	.type	StartControlTask,%function
	.code	16                              @ @StartControlTask
	.thumb_func
StartControlTask:
.Lfunc_begin3:
	.loc	1 158 0                         @ ../Core/Src/freertos.c:158:0
	.fnstart
	.cfi_startproc
@ %bb.0:
	.save	{r7, lr}
	push	{r7, lr}
	.cfi_def_cfa_offset 8
	.cfi_offset lr, -4
	.cfi_offset r7, -8
	.pad	#8
	sub	sp, #8
	.cfi_def_cfa_offset 16
	str	r0, [sp, #4]
.Ltmp8:
	.loc	1 161 3 prologue_end            @ ../Core/Src/freertos.c:161:3
	b	.LBB3_1
.LBB3_1:                                @ =>This Inner Loop Header: Depth=1
	.loc	1 0 3 is_stmt 0                 @ ../Core/Src/freertos.c:0:3
	movs	r0, #1
.Ltmp9:
	.loc	1 163 5 is_stmt 1               @ ../Core/Src/freertos.c:163:5
	bl	osDelay
.Ltmp10:
	.loc	1 161 3                         @ ../Core/Src/freertos.c:161:3
	b	.LBB3_1
.Ltmp11:
.Lfunc_end3:
	.size	StartControlTask, .Lfunc_end3-StartControlTask
	.cfi_endproc
	.cantunwind
	.fnend
                                        @ -- End function
	.section	.text.StartHeartBeatTask,"ax",%progbits
	.hidden	StartHeartBeatTask              @ -- Begin function StartHeartBeatTask
	.weak	StartHeartBeatTask
	.p2align	2
	.type	StartHeartBeatTask,%function
	.code	16                              @ @StartHeartBeatTask
	.thumb_func
StartHeartBeatTask:
.Lfunc_begin4:
	.loc	1 176 0                         @ ../Core/Src/freertos.c:176:0
	.fnstart
	.cfi_startproc
@ %bb.0:
	.save	{r7, lr}
	push	{r7, lr}
	.cfi_def_cfa_offset 8
	.cfi_offset lr, -4
	.cfi_offset r7, -8
	.pad	#8
	sub	sp, #8
	.cfi_def_cfa_offset 16
	str	r0, [sp, #4]
.Ltmp12:
	.loc	1 179 3 prologue_end            @ ../Core/Src/freertos.c:179:3
	b	.LBB4_1
.LBB4_1:                                @ =>This Inner Loop Header: Depth=1
	.loc	1 0 3 is_stmt 0                 @ ../Core/Src/freertos.c:0:3
	movs	r0, #1
.Ltmp13:
	.loc	1 181 5 is_stmt 1               @ ../Core/Src/freertos.c:181:5
	bl	osDelay
.Ltmp14:
	.loc	1 179 3                         @ ../Core/Src/freertos.c:179:3
	b	.LBB4_1
.Ltmp15:
.Lfunc_end4:
	.size	StartHeartBeatTask, .Lfunc_end4-StartHeartBeatTask
	.cfi_endproc
	.cantunwind
	.fnend
                                        @ -- End function
	.section	.text.StartRealTimeTask,"ax",%progbits
	.hidden	StartRealTimeTask               @ -- Begin function StartRealTimeTask
	.weak	StartRealTimeTask
	.p2align	2
	.type	StartRealTimeTask,%function
	.code	16                              @ @StartRealTimeTask
	.thumb_func
StartRealTimeTask:
.Lfunc_begin5:
	.loc	1 194 0                         @ ../Core/Src/freertos.c:194:0
	.fnstart
	.cfi_startproc
@ %bb.0:
	.save	{r7, lr}
	push	{r7, lr}
	.cfi_def_cfa_offset 8
	.cfi_offset lr, -4
	.cfi_offset r7, -8
	.pad	#8
	sub	sp, #8
	.cfi_def_cfa_offset 16
	str	r0, [sp, #4]
.Ltmp16:
	.loc	1 197 3 prologue_end            @ ../Core/Src/freertos.c:197:3
	b	.LBB5_1
.LBB5_1:                                @ =>This Inner Loop Header: Depth=1
	.loc	1 0 3 is_stmt 0                 @ ../Core/Src/freertos.c:0:3
	movs	r0, #1
.Ltmp17:
	.loc	1 199 5 is_stmt 1               @ ../Core/Src/freertos.c:199:5
	bl	osDelay
.Ltmp18:
	.loc	1 197 3                         @ ../Core/Src/freertos.c:197:3
	b	.LBB5_1
.Ltmp19:
.Lfunc_end5:
	.size	StartRealTimeTask, .Lfunc_end5-StartRealTimeTask
	.cfi_endproc
	.cantunwind
	.fnend
                                        @ -- End function
	.type	xIdleTaskTCBBuffer,%object      @ @xIdleTaskTCBBuffer
	.section	.bss.xIdleTaskTCBBuffer,"aw",%nobits
	.p2align	2, 0x0
xIdleTaskTCBBuffer:
	.zero	84
	.size	xIdleTaskTCBBuffer, 84

	.type	xIdleStack,%object              @ @xIdleStack
	.section	.bss.xIdleStack,"aw",%nobits
	.p2align	2, 0x0
xIdleStack:
	.zero	512
	.size	xIdleStack, 512

	.type	.L.str,%object                  @ @.str
	.section	.rodata.str1.1,"aMS",%progbits,1
.L.str:
	.asciz	"defaultTask"
	.size	.L.str, 12

	.type	.L__const.MX_FREERTOS_Init.os_thread_def_defaultTask,%object @ @__const.MX_FREERTOS_Init.os_thread_def_defaultTask
	.section	.rodata..L__const.MX_FREERTOS_Init.os_thread_def_defaultTask,"a",%progbits
	.p2align	2, 0x0
.L__const.MX_FREERTOS_Init.os_thread_def_defaultTask:
	.long	.L.str
	.long	StartDefaultTask
	.short	0                               @ 0x0
	.zero	2
	.long	0                               @ 0x0
	.long	128                             @ 0x80
	.long	0
	.long	0
	.size	.L__const.MX_FREERTOS_Init.os_thread_def_defaultTask, 28

	.hidden	defaultTaskHandle               @ @defaultTaskHandle
	.type	defaultTaskHandle,%object
	.section	.bss.defaultTaskHandle,"aw",%nobits
	.globl	defaultTaskHandle
	.p2align	2, 0x0
defaultTaskHandle:
	.long	0
	.size	defaultTaskHandle, 4

	.type	.L.str.1,%object                @ @.str.1
	.section	.rodata.str1.1,"aMS",%progbits,1
.L.str.1:
	.asciz	"ControlTask"
	.size	.L.str.1, 12

	.type	.L__const.MX_FREERTOS_Init.os_thread_def_ControlTask,%object @ @__const.MX_FREERTOS_Init.os_thread_def_ControlTask
	.section	.rodata..L__const.MX_FREERTOS_Init.os_thread_def_ControlTask,"a",%progbits
	.p2align	2, 0x0
.L__const.MX_FREERTOS_Init.os_thread_def_ControlTask:
	.long	.L.str.1
	.long	StartControlTask
	.short	65533                           @ 0xfffd
	.zero	2
	.long	0                               @ 0x0
	.long	1024                            @ 0x400
	.long	0
	.long	0
	.size	.L__const.MX_FREERTOS_Init.os_thread_def_ControlTask, 28

	.hidden	ControlTaskHandle               @ @ControlTaskHandle
	.type	ControlTaskHandle,%object
	.section	.bss.ControlTaskHandle,"aw",%nobits
	.globl	ControlTaskHandle
	.p2align	2, 0x0
ControlTaskHandle:
	.long	0
	.size	ControlTaskHandle, 4

	.type	.L.str.2,%object                @ @.str.2
	.section	.rodata.str1.1,"aMS",%progbits,1
.L.str.2:
	.asciz	"HeartBeatTask"
	.size	.L.str.2, 14

	.type	.L__const.MX_FREERTOS_Init.os_thread_def_HeartBeatTask,%object @ @__const.MX_FREERTOS_Init.os_thread_def_HeartBeatTask
	.section	.rodata..L__const.MX_FREERTOS_Init.os_thread_def_HeartBeatTask,"a",%progbits
	.p2align	2, 0x0
.L__const.MX_FREERTOS_Init.os_thread_def_HeartBeatTask:
	.long	.L.str.2
	.long	StartHeartBeatTask
	.short	1                               @ 0x1
	.zero	2
	.long	0                               @ 0x0
	.long	256                             @ 0x100
	.long	0
	.long	0
	.size	.L__const.MX_FREERTOS_Init.os_thread_def_HeartBeatTask, 28

	.hidden	HeartBeatTaskHandle             @ @HeartBeatTaskHandle
	.type	HeartBeatTaskHandle,%object
	.section	.bss.HeartBeatTaskHandle,"aw",%nobits
	.globl	HeartBeatTaskHandle
	.p2align	2, 0x0
HeartBeatTaskHandle:
	.long	0
	.size	HeartBeatTaskHandle, 4

	.type	.L.str.3,%object                @ @.str.3
	.section	.rodata.str1.1,"aMS",%progbits,1
.L.str.3:
	.asciz	"RealTimeTask"
	.size	.L.str.3, 13

	.type	.L__const.MX_FREERTOS_Init.os_thread_def_RealTimeTask,%object @ @__const.MX_FREERTOS_Init.os_thread_def_RealTimeTask
	.section	.rodata..L__const.MX_FREERTOS_Init.os_thread_def_RealTimeTask,"a",%progbits
	.p2align	2, 0x0
.L__const.MX_FREERTOS_Init.os_thread_def_RealTimeTask:
	.long	.L.str.3
	.long	StartRealTimeTask
	.short	2                               @ 0x2
	.zero	2
	.long	0                               @ 0x0
	.long	1024                            @ 0x400
	.long	0
	.long	0
	.size	.L__const.MX_FREERTOS_Init.os_thread_def_RealTimeTask, 28

	.hidden	RealTimeTaskHandle              @ @RealTimeTaskHandle
	.type	RealTimeTaskHandle,%object
	.section	.bss.RealTimeTaskHandle,"aw",%nobits
	.globl	RealTimeTaskHandle
	.p2align	2, 0x0
RealTimeTaskHandle:
	.long	0
	.size	RealTimeTaskHandle, 4

	.section	".note.GNU-stack","",%progbits
	.eabi_attribute	30, 6	@ Tag_ABI_optimization_goals
	.ARM_attribute	16, 1	@ Tag_AV_eba