	.text
	.syntax unified
	.eabi_attribute	67, "2.09"	@ Tag_conformance
	.cpu	cortex-m4
	.eabi_attribute	6, 13	@ Tag_CPU_arch
	.eabi_attribute	7, 77	@ Tag_CPU_arch_profile
	.eabi_attribute	8, 0	@ Tag_ARM_ISA_use
	.eabi_attribute	9, 2	@ Tag_THUMB_ISA_use
	.fpu	fpv4-sp-d16
	.eabi_attribute	27, 1	@ Tag_ABI_HardFP_use
	.eabi_attribute	36, 1	@ Tag_FP_HP_extension
	.eabi_attribute	34, 1	@ Tag_CPU_unaligned_access
	.eabi_attribute	17, 1	@ Tag_ABI_PCS_GOT_use
	.eabi_attribute	20, 2	@ Tag_ABI_FP_denormal
	.eabi_attribute	21, 0	@ Tag_ABI_FP_exceptions
	.eabi_attribute	23, 1	@ Tag_ABI_FP_number_model
	.eabi_attribute	24, 1	@ Tag_ABI_align_needed
	.eabi_attribute	25, 1	@ Tag_ABI_align_preserved
	.eabi_attribute	28, 1	@ Tag_ABI_VFP_args
	.eabi_attribute	38, 1	@ Tag_ABI_FP_16bit_format
	.eabi_attribute	18, 2	@ Tag_ABI_PCS_wchar_t
	.eabi_attribute	26, 1	@ Tag_ABI_enum_size
	.eabi_attribute	14, 0	@ Tag_ABI_PCS_R9_use
	.file	"gpio.c"
	.file	1 "E:\\RP\\CppTemplate\\MDK-ARM" "../Drivers/STM32F4xx_HAL_Driver/Inc\\stm32f4xx_hal_gpio.h"
	.file	2 "C:\\Keil_v5\\ARM\\ARMCLANG\\Bin\\..\\include" "stdint.h"
	.file	3 "E:\\RP\\CppTemplate\\MDK-ARM" "../Drivers/CMSIS/Device/ST/STM32F4xx/Include/stm32f407xx.h"
	.section	.text.MX_GPIO_Init,"ax",%progbits
	.hidden	MX_GPIO_Init                    @ -- Begin function MX_GPIO_Init
	.globl	MX_GPIO_Init
	.p2align	2
	.type	MX_GPIO_Init,%function
	.code	16                              @ @MX_GPIO_Init
	.thumb_func
MX_GPIO_Init:
.Lfunc_begin0:
	.file	4 "E:\\RP\\CppTemplate\\MDK-ARM" "../Core/Src/gpio.c"
	.loc	4 43 0                          @ ../Core/Src/gpio.c:43:0
	.fnstart
	.cfi_sections .debug_frame
	.cfi_startproc
@ %bb.0:
	.save	{r4, r5, r6, r7, lr}
	push	{r4, r5, r6, r7, lr}
	.cfi_def_cfa_offset 20
	.cfi_offset lr, -4
	.cfi_offset r7, -8
	.cfi_offset r6, -12
	.cfi_offset r5, -16
	.cfi_offset r4, -20
	.pad	#28
	sub	sp, #28
	.cfi_def_cfa_offset 48
	movs	r6, #0
	movw	r0, #14384
.Ltmp0:
	.loc	4 45 20 prologue_end            @ ../Core/Src/gpio.c:45:20
	str	r6, [sp, #24]
	strd	r6, r6, [sp, #16]
	strd	r6, r6, [sp, #8]
.Ltmp1:
	.loc	4 48 3                          @ ../Core/Src/gpio.c:48:3
	str	r6, [sp, #4]
	movt	r0, #16386
	ldr	r1, [r0]
	movw	r4, #1024
	orr	r1, r1, #128
	str	r1, [r0]
	ldr	r1, [r0]
	movt	r4, #16386
	and	r1, r1, #128
	str	r1, [sp, #4]
	ldr	r1, [sp, #4]
.Ltmp2:
	.loc	4 49 3                          @ ../Core/Src/gpio.c:49:3
	str	r6, [sp, #4]
	ldr	r1, [r0]
.Ltmp3:
	.loc	4 55 3                          @ ../Core/Src/gpio.c:55:3
	movs	r2, #0
.Ltmp4:
	.loc	4 49 3                          @ ../Core/Src/gpio.c:49:3
	orr	r1, r1, #1
	str	r1, [r0]
	ldr	r1, [r0]
	and	r1, r1, #1
	str	r1, [sp, #4]
	ldr	r1, [sp, #4]
.Ltmp5:
	.loc	4 50 3                          @ ../Core/Src/gpio.c:50:3
	str	r6, [sp, #4]
	ldr	r1, [r0]
	orr	r1, r1, #2
	str	r1, [r0]
	ldr	r1, [r0]
	and	r1, r1, #2
	str	r1, [sp, #4]
	ldr	r1, [sp, #4]
.Ltmp6:
	.loc	4 51 3                          @ ../Core/Src/gpio.c:51:3
	str	r6, [sp, #4]
	ldr	r1, [r0]
	orr	r1, r1, #8
	str	r1, [r0]
	ldr	r1, [r0]
	and	r1, r1, #8
	str	r1, [sp, #4]
	ldr	r1, [sp, #4]
.Ltmp7:
	.loc	4 52 3                          @ ../Core/Src/gpio.c:52:3
	str	r6, [sp, #4]
	ldr	r1, [r0]
	orr	r1, r1, #4
	str	r1, [r0]
	ldr	r0, [r0]
.Ltmp8:
	.loc	4 55 3                          @ ../Core/Src/gpio.c:55:3
	mov.w	r1, #4480
.Ltmp9:
	.loc	4 52 3                          @ ../Core/Src/gpio.c:52:3
	and	r0, r0, #4
	str	r0, [sp, #4]
	ldr	r0, [sp, #4]
.Ltmp10:
	.loc	4 55 3                          @ ../Core/Src/gpio.c:55:3
	mov	r0, r4
	bl	HAL_GPIO_WritePin
.Ltmp11:
	.loc	4 0 3 is_stmt 0                 @ ../Core/Src/gpio.c:0:3
	mov.w	r0, #4096
	add	r5, sp, #8
	.loc	4 58 23 is_stmt 1               @ ../Core/Src/gpio.c:58:23
	str	r0, [sp, #8]
	movs	r7, #1
	.loc	4 62 3                          @ ../Core/Src/gpio.c:62:3
	mov	r0, r4
	mov	r1, r5
	.loc	4 59 24                         @ ../Core/Src/gpio.c:59:24
	strd	r7, r6, [sp, #12]
	.loc	4 61 25                         @ ../Core/Src/gpio.c:61:25
	str	r6, [sp, #20]
	.loc	4 62 3                          @ ../Core/Src/gpio.c:62:3
	bl	HAL_GPIO_Init
.Ltmp12:
	.loc	4 0 3 is_stmt 0                 @ ../Core/Src/gpio.c:0:3
	movs	r0, #128
	.loc	4 65 23 is_stmt 1               @ ../Core/Src/gpio.c:65:23
	strd	r0, r7, [sp, #8]
	movs	r0, #2
	.loc	4 68 25                         @ ../Core/Src/gpio.c:68:25
	str	r0, [sp, #20]
	.loc	4 69 3                          @ ../Core/Src/gpio.c:69:3
	mov	r0, r4
	mov	r1, r5
	.loc	4 67 24                         @ ../Core/Src/gpio.c:67:24
	str	r6, [sp, #16]
	.loc	4 69 3                          @ ../Core/Src/gpio.c:69:3
	bl	HAL_GPIO_Init
.Ltmp13:
	.loc	4 0 3 is_stmt 0                 @ ../Core/Src/gpio.c:0:3
	mov.w	r0, #256
	.loc	4 72 23 is_stmt 1               @ ../Core/Src/gpio.c:72:23
	strd	r0, r7, [sp, #8]
	movs	r0, #3
	.loc	4 75 25                         @ ../Core/Src/gpio.c:75:25
	str	r0, [sp, #20]
	.loc	4 76 3                          @ ../Core/Src/gpio.c:76:3
	mov	r0, r4
	mov	r1, r5
	.loc	4 74 24                         @ ../Core/Src/gpio.c:74:24
	str	r6, [sp, #16]
	.loc	4 76 3                          @ ../Core/Src/gpio.c:76:3
	bl	HAL_GPIO_Init
.Ltmp14:
	.loc	4 78 1                          @ ../Core/Src/gpio.c:78:1
	add	sp, #28
	pop	{r4, r5, r6, r7, pc}
.Ltmp15:
.Lfunc_end0:
	.size	MX_GPIO_Init, .Lfunc_end0-MX_GPIO_Init
	.cfi_endproc
	.cantunwind
	.fnend
                                        @ -- End function
	.section	".note.GNU-stack","",%progbits
	.eabi_attribute	30, 1	@ Tag_ABI_optimization_goals
	.ARM_attribute	16, 1	@ Tag_AV_eba