	.text
	.syntax unified
	.eabi_attribute	67, "2.09"	@ Tag_conformance
	.cpu	cortex-m4
	.eabi_attribute	6, 13	@ Tag_CPU_arch
	.eabi_attribute	7, 77	@ Tag_CPU_arch_profile
	.eabi_attribute	8, 0	@ Tag_ARM_ISA_use
	.eabi_attribute	9, 2	@ Tag_THUMB_ISA_use
	.fpu	fpv4-sp-d16
	.eabi_attribute	27, 1	@ Tag_ABI_HardFP_use
	.eabi_attribute	36, 1	@ Tag_FP_HP_extension
	.eabi_attribute	34, 1	@ Tag_CPU_unaligned_access
	.eabi_attribute	17, 1	@ Tag_ABI_PCS_GOT_use
	.eabi_attribute	20, 2	@ Tag_ABI_FP_denormal
	.eabi_attribute	21, 0	@ Tag_ABI_FP_exceptions
	.eabi_attribute	23, 1	@ Tag_ABI_FP_number_model
	.eabi_attribute	24, 1	@ Tag_ABI_align_needed
	.eabi_attribute	25, 1	@ Tag_ABI_align_preserved
	.eabi_attribute	28, 1	@ Tag_ABI_VFP_args
	.eabi_attribute	38, 1	@ Tag_ABI_FP_16bit_format
	.eabi_attribute	18, 2	@ Tag_ABI_PCS_wchar_t
	.eabi_attribute	26, 1	@ Tag_ABI_enum_size
	.eabi_attribute	14, 0	@ Tag_ABI_PCS_R9_use
	.file	"stm32f4xx_hal_timebase_tim.c"
	.file	1 "C:\\Keil_v5\\ARM\\ARMCLANG\\Bin\\..\\include" "stdint.h"
	.file	2 "E:\\RP\\CppTemplate\\MDK-ARM" "../Drivers/CMSIS/Device/ST/STM32F4xx/Include/stm32f407xx.h"
	.file	3 "E:\\RP\\CppTemplate\\MDK-ARM" "../Drivers/STM32F4xx_HAL_Driver/Inc\\stm32f4xx_hal_tim.h"
	.file	4 "E:\\RP\\CppTemplate\\MDK-ARM" "../Drivers/STM32F4xx_HAL_Driver/Inc\\stm32f4xx_hal_dma.h"
	.file	5 "E:\\RP\\CppTemplate\\MDK-ARM" "../Drivers/STM32F4xx_HAL_Driver/Inc/stm32f4xx_hal_def.h"
	.file	6 "E:\\RP\\CppTemplate\\MDK-ARM" "../Core/Src/stm32f4xx_hal_timebase_tim.c"
	.section	.text.HAL_InitTick,"ax",%progbits
	.hidden	HAL_InitTick                    @ -- Begin function HAL_InitTick
	.globl	HAL_InitTick
	.p2align	2
	.type	HAL_InitTick,%function
	.code	16                              @ @HAL_InitTick
	.thumb_func
HAL_InitTick:
.Lfunc_begin0:
	.loc	6 42 0                          @ ../Core/Src/stm32f4xx_hal_timebase_tim.c:42:0
	.fnstart
	.cfi_sections .debug_frame
	.cfi_startproc
@ %bb.0:
	@DEBUG_VALUE: HAL_InitTick:TickPriority <- $r0
	.save	{r4, r5, r6, lr}
	push	{r4, r5, r6, lr}
	.cfi_def_cfa_offset 16
	.cfi_offset lr, -4
	.cfi_offset r6, -8
	.cfi_offset r5, -12
	.cfi_offset r4, -16
	.pad	#24
	sub	sp, #24
	.cfi_def_cfa_offset 40
	movs	r5, #0
	movw	r1, #14400
.Ltmp0:
	.loc	6 51 3 prologue_end             @ ../Core/Src/stm32f4xx_hal_timebase_tim.c:51:3
	str	r5, [sp, #4]
	movt	r1, #16386
	ldr	r2, [r1]
	mov	r4, r0
.Ltmp1:
	@DEBUG_VALUE: HAL_InitTick:TickPriority <- $r4
	@DEBUG_VALUE: HAL_InitTick:uwPrescalerValue <- 0
	@DEBUG_VALUE: HAL_InitTick:uwAPB1Prescaler <- 0
	@DEBUG_VALUE: HAL_InitTick:TickPriority <- $r4
	orr	r2, r2, #1
	str	r2, [r1]
	ldr	r1, [r1]
	add	r0, sp, #4
	and	r1, r1, #1
	str	r1, [sp, #4]
	ldr	r1, [sp, #4]
.Ltmp2:
	@DEBUG_VALUE: HAL_InitTick:pFLatency <- [DW_OP_deref] $sp
	.loc	6 0 3 is_stmt 0                 @ ../Core/Src/stm32f4xx_hal_timebase_tim.c:0:3
	mov	r1, sp
.Ltmp3:
	.loc	6 54 3 is_stmt 1                @ ../Core/Src/stm32f4xx_hal_timebase_tim.c:54:3
	bl	HAL_RCC_GetClockConfig
.Ltmp4:
	.loc	6 57 31                         @ ../Core/Src/stm32f4xx_hal_timebase_tim.c:57:31
	ldr	r6, [sp, #16]
.Ltmp5:
	@DEBUG_VALUE: HAL_InitTick:uwAPB1Prescaler <- $r6
	.loc	6 59 23                         @ ../Core/Src/stm32f4xx_hal_timebase_tim.c:59:23
	cmp	r6, #0
	it	ne
	movne	r6, #1
.Ltmp6:
	.loc	6 0 0 is_stmt 0                 @ ../Core/Src/stm32f4xx_hal_timebase_tim.c:0:0
	bl	HAL_RCC_GetPCLK1Freq
.Ltmp7:
	movw	r1, #56963
.Ltmp8:
	.loc	6 59 7                          @ ../Core/Src/stm32f4xx_hal_timebase_tim.c:59:7
	lsls	r0, r6
.Ltmp9:
	@DEBUG_VALUE: HAL_InitTick:uwTimclock <- $r0
	.loc	6 0 7                           @ ../Core/Src/stm32f4xx_hal_timebase_tim.c:0:7
	movt	r1, #17179
	.loc	6 69 46 is_stmt 1               @ ../Core/Src/stm32f4xx_hal_timebase_tim.c:69:46
	umull	r0, r1, r0, r1
.Ltmp10:
	.loc	6 0 46 is_stmt 0                @ ../Core/Src/stm32f4xx_hal_timebase_tim.c:0:46
	mov.w	r0, #-1
	.loc	6 69 58                         @ ../Core/Src/stm32f4xx_hal_timebase_tim.c:69:58
	add.w	r1, r0, r1, lsr #18
.Ltmp11:
	@DEBUG_VALUE: HAL_InitTick:uwPrescalerValue <- $r1
	.loc	6 72 18 is_stmt 1               @ ../Core/Src/stm32f4xx_hal_timebase_tim.c:72:18
	movw	r0, :lower16:htim2
	movt	r0, :upper16:htim2
	mov.w	r2, #1073741824
	movw	r3, #999
	strd	r2, r1, [r0]
	.loc	6 84 26                         @ ../Core/Src/stm32f4xx_hal_timebase_tim.c:84:26
	strd	r5, r3, [r0, #8]
	.loc	6 83 28                         @ ../Core/Src/stm32f4xx_hal_timebase_tim.c:83:28
	str	r5, [r0, #16]
	.loc	6 85 32                         @ ../Core/Src/stm32f4xx_hal_timebase_tim.c:85:32
	str	r5, [r0, #24]
	.loc	6 87 12                         @ ../Core/Src/stm32f4xx_hal_timebase_tim.c:87:12
	bl	HAL_TIM_Base_Init
.Ltmp12:
	mov	r5, r0
.Ltmp13:
	@DEBUG_VALUE: HAL_InitTick:status <- $r5
	.loc	6 88 7                          @ ../Core/Src/stm32f4xx_hal_timebase_tim.c:88:7
	cbnz	r0, .LBB0_5
.Ltmp14:
@ %bb.1:
	@DEBUG_VALUE: HAL_InitTick:status <- $r5
	@DEBUG_VALUE: HAL_InitTick:pFLatency <- [DW_OP_deref] $sp
	@DEBUG_VALUE: HAL_InitTick:TickPriority <- $r4
	.loc	6 91 14                         @ ../Core/Src/stm32f4xx_hal_timebase_tim.c:91:14
	movw	r0, :lower16:htim2
	movt	r0, :upper16:htim2
	bl	HAL_TIM_Base_Start_IT
.Ltmp15:
	mov	r5, r0
.Ltmp16:
	@DEBUG_VALUE: HAL_InitTick:status <- $r5
	.loc	6 92 9                          @ ../Core/Src/stm32f4xx_hal_timebase_tim.c:92:9
	cbnz	r0, .LBB0_5
.Ltmp17:
@ %bb.2:
	@DEBUG_VALUE: HAL_InitTick:status <- $r5
	@DEBUG_VALUE: HAL_InitTick:pFLatency <- [DW_OP_deref] $sp
	@DEBUG_VALUE: HAL_InitTick:TickPriority <- $r4
	.loc	6 95 9                          @ ../Core/Src/stm32f4xx_hal_timebase_tim.c:95:9
	movs	r0, #28
	bl	HAL_NVIC_EnableIRQ
.Ltmp18:
	.loc	6 97 11                         @ ../Core/Src/stm32f4xx_hal_timebase_tim.c:97:11
	cmp	r4, #15
	bhi	.LBB0_4
.Ltmp19:
@ %bb.3:
	@DEBUG_VALUE: HAL_InitTick:status <- $r5
	@DEBUG_VALUE: HAL_InitTick:pFLatency <- [DW_OP_deref] $sp
	@DEBUG_VALUE: HAL_InitTick:TickPriority <- $r4
	.loc	6 100 9                         @ ../Core/Src/stm32f4xx_hal_timebase_tim.c:100:9
	movs	r0, #28
	mov	r1, r4
	movs	r2, #0
	bl	HAL_NVIC_SetPriority
.Ltmp20:
	.loc	6 101 20                        @ ../Core/Src/stm32f4xx_hal_timebase_tim.c:101:20
	movw	r0, :lower16:uwTickPrio
	movt	r0, :upper16:uwTickPrio
	str	r4, [r0]
	b	.LBB0_5
.Ltmp21:
.LBB0_4:
	@DEBUG_VALUE: HAL_InitTick:status <- $r5
	@DEBUG_VALUE: HAL_InitTick:pFLatency <- [DW_OP_deref] $sp
	@DEBUG_VALUE: HAL_InitTick:TickPriority <- $r4
	.loc	6 0 20 is_stmt 0                @ ../Core/Src/stm32f4xx_hal_timebase_tim.c:0:20
	movs	r5, #1
.Ltmp22:
.LBB0_5:
	@DEBUG_VALUE: HAL_InitTick:pFLatency <- [DW_OP_deref] $sp
	@DEBUG_VALUE: HAL_InitTick:TickPriority <- $r4
	@DEBUG_VALUE: HAL_InitTick:status <- $r5
	.loc	6 111 3 is_stmt 1               @ ../Core/Src/stm32f4xx_hal_timebase_tim.c:111:3
	mov	r0, r5
	add	sp, #24
	pop	{r4, r5, r6, pc}
.Ltmp23:
.Lfunc_end0:
	.size	HAL_InitTick, .Lfunc_end0-HAL_InitTick
	.cfi_endproc
	.cantunwind
	.fnend
                                        @ -- End function
	.section	.text.HAL_SuspendTick,"ax",%progbits
	.hidden	HAL_SuspendTick                 @ -- Begin function HAL_SuspendTick
	.globl	HAL_SuspendTick
	.p2align	2
	.type	HAL_SuspendTick,%function
	.code	16                              @ @HAL_SuspendTick
	.thumb_func
HAL_SuspendTick:
.Lfunc_begin1:
	.loc	6 121 0                         @ ../Core/Src/stm32f4xx_hal_timebase_tim.c:121:0
	.fnstart
	.cfi_startproc
@ %bb.0:
	.loc	6 123 3 prologue_end            @ ../Core/Src/stm32f4xx_hal_timebase_tim.c:123:3
	movw	r0, :lower16:htim2
	movt	r0, :upper16:htim2
	ldr	r0, [r0]
	ldr	r1, [r0, #12]
	bic	r1, r1, #1
	str	r1, [r0, #12]
	.loc	6 124 1                         @ ../Core/Src/stm32f4xx_hal_timebase_tim.c:124:1
	bx	lr
.Ltmp24:
.Lfunc_end1:
	.size	HAL_SuspendTick, .Lfunc_end1-HAL_SuspendTick
	.cfi_endproc
	.cantunwind
	.fnend
                                        @ -- End function
	.section	.text.HAL_ResumeTick,"ax",%progbits
	.hidden	HAL_ResumeTick                  @ -- Begin function HAL_ResumeTick
	.globl	HAL_ResumeTick
	.p2align	2
	.type	HAL_ResumeTick,%function
	.code	16                              @ @HAL_ResumeTick
	.thumb_func
HAL_ResumeTick:
.Lfunc_begin2:
	.loc	6 133 0                         @ ../Core/Src/stm32f4xx_hal_timebase_tim.c:133:0
	.fnstart
	.cfi_startproc
@ %bb.0:
	.loc	6 135 3 prologue_end            @ ../Core/Src/stm32f4xx_hal_timebase_tim.c:135:3
	movw	r0, :lower16:htim2
	movt	r0, :upper16:htim2
	ldr	r0, [r0]
	ldr	r1, [r0, #12]
	orr	r1, r1, #1
	str	r1, [r0, #12]
	.loc	6 136 1                         @ ../Core/Src/stm32f4xx_hal_timebase_tim.c:136:1
	bx	lr
.Ltmp25:
.Lfunc_end2:
	.size	HAL_ResumeTick, .Lfunc_end2-HAL_ResumeTick
	.cfi_endproc
	.cantunwind
	.fnend
                                        @ -- End function
	.hidden	htim2                           @ @htim2
	.type	htim2,%object
	.section	.bss.htim2,"aw",%nobits
	.globl	htim2
	.p2align	2, 0x0
htim2:
	.zero	72
	.size	htim2, 72

	.file	7 "E:\\RP\\CppTemplate\\MDK-ARM" "../Drivers/STM32F4xx_HAL_Driver/Inc\\stm32f4xx_hal_rcc.h"
	.section	".note.GNU-stack","",%progbits
	.eabi_attribute	30, 1	@ Tag_ABI_optimization_goals
	.ARM_attribute	16, 1	@ Tag_AV_eba