	.text
	.syntax unified
	.eabi_attribute	67, "2.09"	@ Tag_conformance
	.cpu	cortex-m4
	.eabi_attribute	6, 13	@ Tag_CPU_arch
	.eabi_attribute	7, 77	@ Tag_CPU_arch_profile
	.eabi_attribute	8, 0	@ Tag_ARM_ISA_use
	.eabi_attribute	9, 2	@ Tag_THUMB_ISA_use
	.fpu	fpv4-sp-d16
	.eabi_attribute	27, 1	@ Tag_ABI_HardFP_use
	.eabi_attribute	36, 1	@ Tag_FP_HP_extension
	.eabi_attribute	34, 1	@ Tag_CPU_unaligned_access
	.eabi_attribute	17, 1	@ Tag_ABI_PCS_GOT_use
	.eabi_attribute	20, 2	@ Tag_ABI_FP_denormal
	.eabi_attribute	21, 0	@ Tag_ABI_FP_exceptions
	.eabi_attribute	23, 1	@ Tag_ABI_FP_number_model
	.eabi_attribute	24, 1	@ Tag_ABI_align_needed
	.eabi_attribute	25, 1	@ Tag_ABI_align_preserved
	.eabi_attribute	28, 1	@ Tag_ABI_VFP_args
	.eabi_attribute	38, 1	@ Tag_ABI_FP_16bit_format
	.eabi_attribute	18, 2	@ Tag_ABI_PCS_wchar_t
	.eabi_attribute	26, 1	@ Tag_ABI_enum_size
	.eabi_attribute	14, 0	@ Tag_ABI_PCS_R9_use
	.file	"tim.c"
	.file	1 "C:\\Keil_v5\\ARM\\ARMCLANG\\Bin\\..\\include" "stdint.h"
	.file	2 "E:\\RP\\CppTemplate\\MDK-ARM" "../Drivers/CMSIS/Device/ST/STM32F4xx/Include/stm32f407xx.h"
	.file	3 "E:\\RP\\CppTemplate\\MDK-ARM" "../Drivers/STM32F4xx_HAL_Driver/Inc\\stm32f4xx_hal_tim.h"
	.file	4 "E:\\RP\\CppTemplate\\MDK-ARM" "../Drivers/STM32F4xx_HAL_Driver/Inc\\stm32f4xx_hal_dma.h"
	.file	5 "E:\\RP\\CppTemplate\\MDK-ARM" "../Drivers/STM32F4xx_HAL_Driver/Inc/stm32f4xx_hal_def.h"
	.file	6 "E:\\RP\\CppTemplate\\MDK-ARM" "../Core/Src/tim.c"
	.section	.text.MX_TIM11_Init,"ax",%progbits
	.hidden	MX_TIM11_Init                   @ -- Begin function MX_TIM11_Init
	.globl	MX_TIM11_Init
	.p2align	2
	.type	MX_TIM11_Init,%function
	.code	16                              @ @MX_TIM11_Init
	.thumb_func
MX_TIM11_Init:
.Lfunc_begin0:
	.loc	6 31 0                          @ ../Core/Src/tim.c:31:0
	.fnstart
	.cfi_sections .debug_frame
	.cfi_startproc
@ %bb.0:
	.save	{r7, lr}
	push	{r7, lr}
	.cfi_def_cfa_offset 8
	.cfi_offset lr, -4
	.cfi_offset r7, -8
	.pad	#32
	sub	sp, #32
	.cfi_def_cfa_offset 40
	movs	r1, #0
.Ltmp0:
	.loc	6 37 22 prologue_end            @ ../Core/Src/tim.c:37:22
	str	r1, [sp]                        @ 4-byte Spill
	str	r1, [sp, #28]
	str	r1, [sp, #24]
	str	r1, [sp, #20]
	str	r1, [sp, #16]
	str	r1, [sp, #12]
	str	r1, [sp, #8]
	str	r1, [sp, #4]
	.loc	6 42 19                         @ ../Core/Src/tim.c:42:19
	movw	r0, :lower16:htim11
	movt	r0, :upper16:htim11
	movw	r2, #18432
	movt	r2, #16385
	str	r2, [r0]
	movs	r2, #167
	.loc	6 43 25                         @ ../Core/Src/tim.c:43:25
	str	r2, [r0, #4]
	.loc	6 44 27                         @ ../Core/Src/tim.c:44:27
	str	r1, [r0, #8]
	movw	r2, #499
	.loc	6 45 22                         @ ../Core/Src/tim.c:45:22
	str	r2, [r0, #12]
	.loc	6 46 29                         @ ../Core/Src/tim.c:46:29
	str	r1, [r0, #16]
	.loc	6 47 33                         @ ../Core/Src/tim.c:47:33
	str	r1, [r0, #24]
.Ltmp1:
	.loc	6 48 7                          @ ../Core/Src/tim.c:48:7
	bl	HAL_TIM_Base_Init
.Ltmp2:
	.loc	6 48 7 is_stmt 0                @ ../Core/Src/tim.c:48:7
	cbz	r0, .LBB0_2
	b	.LBB0_1
.LBB0_1:
.Ltmp3:
	.loc	6 50 5 is_stmt 1                @ ../Core/Src/tim.c:50:5
	bl	Error_Handler
	.loc	6 51 3                          @ ../Core/Src/tim.c:51:3
	b	.LBB0_2
.Ltmp4:
.LBB0_2:
	.loc	6 52 7                          @ ../Core/Src/tim.c:52:7
	movw	r0, :lower16:htim11
	movt	r0, :upper16:htim11
	bl	HAL_TIM_PWM_Init
.Ltmp5:
	.loc	6 52 7 is_stmt 0                @ ../Core/Src/tim.c:52:7
	cbz	r0, .LBB0_4
	b	.LBB0_3
.LBB0_3:
.Ltmp6:
	.loc	6 54 5 is_stmt 1                @ ../Core/Src/tim.c:54:5
	bl	Error_Handler
	.loc	6 55 3                          @ ../Core/Src/tim.c:55:3
	b	.LBB0_4
.Ltmp7:
.LBB0_4:
	.loc	6 0 3 is_stmt 0                 @ ../Core/Src/tim.c:0:3
	movs	r0, #96
	.loc	6 56 20 is_stmt 1               @ ../Core/Src/tim.c:56:20
	str	r0, [sp, #4]
	movs	r2, #0
	.loc	6 57 19                         @ ../Core/Src/tim.c:57:19
	str	r2, [sp, #8]
	.loc	6 58 24                         @ ../Core/Src/tim.c:58:24
	str	r2, [sp, #12]
	.loc	6 59 24                         @ ../Core/Src/tim.c:59:24
	str	r2, [sp, #20]
.Ltmp8:
	.loc	6 60 7                          @ ../Core/Src/tim.c:60:7
	movw	r0, :lower16:htim11
	movt	r0, :upper16:htim11
	add	r1, sp, #4
	bl	HAL_TIM_PWM_ConfigChannel
.Ltmp9:
	.loc	6 60 7 is_stmt 0                @ ../Core/Src/tim.c:60:7
	cbz	r0, .LBB0_6
	b	.LBB0_5
.LBB0_5:
.Ltmp10:
	.loc	6 62 5 is_stmt 1                @ ../Core/Src/tim.c:62:5
	bl	Error_Handler
	.loc	6 63 3                          @ ../Core/Src/tim.c:63:3
	b	.LBB0_6
.Ltmp11:
.LBB0_6:
	.loc	6 67 3                          @ ../Core/Src/tim.c:67:3
	movw	r0, :lower16:htim11
	movt	r0, :upper16:htim11
	bl	HAL_TIM_MspPostInit
	.loc	6 69 1                          @ ../Core/Src/tim.c:69:1
	add	sp, #32
	pop	{r7, pc}
.Ltmp12:
.Lfunc_end0:
	.size	MX_TIM11_Init, .Lfunc_end0-MX_TIM11_Init
	.cfi_endproc
	.cantunwind
	.fnend
                                        @ -- End function
	.section	.text.HAL_TIM_MspPostInit,"ax",%progbits
	.hidden	HAL_TIM_MspPostInit             @ -- Begin function HAL_TIM_MspPostInit
	.globl	HAL_TIM_MspPostInit
	.p2align	2
	.type	HAL_TIM_MspPostInit,%function
	.code	16                              @ @HAL_TIM_MspPostInit
	.thumb_func
HAL_TIM_MspPostInit:
.Lfunc_begin1:
	.loc	6 87 0                          @ ../Core/Src/tim.c:87:0
	.fnstart
	.cfi_startproc
@ %bb.0:
	.save	{r7, lr}
	push	{r7, lr}
	.cfi_def_cfa_offset 8
	.cfi_offset lr, -4
	.cfi_offset r7, -8
	.pad	#32
	sub	sp, #32
	.cfi_def_cfa_offset 40
	str	r0, [sp, #28]
	movs	r0, #0
.Ltmp13:
	.loc	6 89 20 prologue_end            @ ../Core/Src/tim.c:89:20
	str	r0, [sp, #24]
	str	r0, [sp, #20]
	str	r0, [sp, #16]
	str	r0, [sp, #12]
	str	r0, [sp, #8]
.Ltmp14:
	.loc	6 90 6                          @ ../Core/Src/tim.c:90:6
	ldr	r0, [sp, #28]
	.loc	6 90 17 is_stmt 0               @ ../Core/Src/tim.c:90:17
	ldr	r0, [r0]
	movw	r1, #18432
	movt	r1, #16385
.Ltmp15:
	.loc	6 90 6                          @ ../Core/Src/tim.c:90:6
	cmp	r0, r1
	bne	.LBB1_4
	b	.LBB1_1
.LBB1_1:
.Ltmp16:
	.loc	6 96 5 is_stmt 1                @ ../Core/Src/tim.c:96:5
	b	.LBB1_2
.LBB1_2:
	.loc	6 0 5 is_stmt 0                 @ ../Core/Src/tim.c:0:5
	movs	r0, #0
.Ltmp17:
	.loc	6 96 5                          @ ../Core/Src/tim.c:96:5
	str	r0, [sp, #4]
	movw	r0, #14384
	movt	r0, #16386
	ldr	r1, [r0]
	orr	r1, r1, #2
	str	r1, [r0]
	ldr	r0, [r0]
	and	r0, r0, #2
	str	r0, [sp, #4]
	ldr	r0, [sp, #4]
	b	.LBB1_3
.Ltmp18:
.LBB1_3:
	.loc	6 0 5                           @ ../Core/Src/tim.c:0:5
	mov.w	r0, #512
	.loc	6 100 25 is_stmt 1              @ ../Core/Src/tim.c:100:25
	str	r0, [sp, #8]
	movs	r0, #2
	.loc	6 101 26                        @ ../Core/Src/tim.c:101:26
	str	r0, [sp, #12]
	movs	r0, #0
	.loc	6 102 26                        @ ../Core/Src/tim.c:102:26
	str	r0, [sp, #16]
	.loc	6 103 27                        @ ../Core/Src/tim.c:103:27
	str	r0, [sp, #20]
	movs	r0, #3
	.loc	6 104 31                        @ ../Core/Src/tim.c:104:31
	str	r0, [sp, #24]
	movw	r0, #1024
	movt	r0, #16386
	add	r1, sp, #8
	.loc	6 105 5                         @ ../Core/Src/tim.c:105:5
	bl	HAL_GPIO_Init
	.loc	6 110 3                         @ ../Core/Src/tim.c:110:3
	b	.LBB1_4
.Ltmp19:
.LBB1_4:
	.loc	6 112 1                         @ ../Core/Src/tim.c:112:1
	add	sp, #32
	pop	{r7, pc}
.Ltmp20:
.Lfunc_end1:
	.size	HAL_TIM_MspPostInit, .Lfunc_end1-HAL_TIM_MspPostInit
	.cfi_endproc
	.cantunwind
	.fnend
                                        @ -- End function
	.section	.text.HAL_TIM_Base_MspInit,"ax",%progbits
	.hidden	HAL_TIM_Base_MspInit            @ -- Begin function HAL_TIM_Base_MspInit
	.globl	HAL_TIM_Base_MspInit
	.p2align	2
	.type	HAL_TIM_Base_MspInit,%function
	.code	16                              @ @HAL_TIM_Base_MspInit
	.thumb_func
HAL_TIM_Base_MspInit:
.Lfunc_begin2:
	.loc	6 72 0                          @ ../Core/Src/tim.c:72:0
	.fnstart
	.cfi_startproc
@ %bb.0:
	.pad	#8
	sub	sp, #8
	.cfi_def_cfa_offset 8
	str	r0, [sp, #4]
.Ltmp21:
	.loc	6 74 6 prologue_end             @ ../Core/Src/tim.c:74:6
	ldr	r0, [sp, #4]
	.loc	6 74 22 is_stmt 0               @ ../Core/Src/tim.c:74:22
	ldr	r0, [r0]
	movw	r1, #18432
	movt	r1, #16385
.Ltmp22:
	.loc	6 74 6                          @ ../Core/Src/tim.c:74:6
	cmp	r0, r1
	bne	.LBB2_4
	b	.LBB2_1
.LBB2_1:
.Ltmp23:
	.loc	6 80 5 is_stmt 1                @ ../Core/Src/tim.c:80:5
	b	.LBB2_2
.LBB2_2:
	.loc	6 0 5 is_stmt 0                 @ ../Core/Src/tim.c:0:5
	movs	r0, #0
.Ltmp24:
	.loc	6 80 5                          @ ../Core/Src/tim.c:80:5
	str	r0, [sp]
	movw	r0, #14404
	movt	r0, #16386
	ldr	r1, [r0]
	orr	r1, r1, #262144
	str	r1, [r0]
	ldr	r0, [r0]
	and	r0, r0, #262144
	str	r0, [sp]
	ldr	r0, [sp]
	b	.LBB2_3
.Ltmp25:
.LBB2_3:
	.loc	6 84 3 is_stmt 1                @ ../Core/Src/tim.c:84:3
	b	.LBB2_4
.Ltmp26:
.LBB2_4:
	.loc	6 85 1                          @ ../Core/Src/tim.c:85:1
	add	sp, #8
	bx	lr
.Ltmp27:
.Lfunc_end2:
	.size	HAL_TIM_Base_MspInit, .Lfunc_end2-HAL_TIM_Base_MspInit
	.cfi_endproc
	.cantunwind
	.fnend
                                        @ -- End function
	.section	.text.HAL_TIM_Base_MspDeInit,"ax",%progbits
	.hidden	HAL_TIM_Base_MspDeInit          @ -- Begin function HAL_TIM_Base_MspDeInit
	.globl	HAL_TIM_Base_MspDeInit
	.p2align	2
	.type	HAL_TIM_Base_MspDeInit,%function
	.code	16                              @ @HAL_TIM_Base_MspDeInit
	.thumb_func
HAL_TIM_Base_MspDeInit:
.Lfunc_begin3:
	.loc	6 115 0                         @ ../Core/Src/tim.c:115:0
	.fnstart
	.cfi_startproc
@ %bb.0:
	.pad	#4
	sub	sp, #4
	.cfi_def_cfa_offset 4
	str	r0, [sp]
.Ltmp28:
	.loc	6 117 6 prologue_end            @ ../Core/Src/tim.c:117:6
	ldr	r0, [sp]
	.loc	6 117 22 is_stmt 0              @ ../Core/Src/tim.c:117:22
	ldr	r0, [r0]
	movw	r1, #18432
	movt	r1, #16385
.Ltmp29:
	.loc	6 117 6                         @ ../Core/Src/tim.c:117:6
	cmp	r0, r1
	bne	.LBB3_2
	b	.LBB3_1
.LBB3_1:
	.loc	6 0 6                           @ ../Core/Src/tim.c:0:6
	movw	r1, #14404
	movt	r1, #16386
.Ltmp30:
	.loc	6 123 5 is_stmt 1               @ ../Core/Src/tim.c:123:5
	ldr	r0, [r1]
	bic	r0, r0, #262144
	str	r0, [r1]
	.loc	6 127 3                         @ ../Core/Src/tim.c:127:3
	b	.LBB3_2
.Ltmp31:
.LBB3_2:
	.loc	6 128 1                         @ ../Core/Src/tim.c:128:1
	add	sp, #4
	bx	lr
.Ltmp32:
.Lfunc_end3:
	.size	HAL_TIM_Base_MspDeInit, .Lfunc_end3-HAL_TIM_Base_MspDeInit
	.cfi_endproc
	.cantunwind
	.fnend
                                        @ -- End function
	.hidden	htim11                          @ @htim11
	.type	htim11,%object
	.section	.bss.htim11,"aw",%nobits
	.globl	htim11
	.p2align	2, 0x0
htim11:
	.zero	72
	.size	htim11, 72

	.file	7 "E:\\RP\\CppTemplate\\MDK-ARM" "../Drivers/STM32F4xx_HAL_Driver/Inc\\stm32f4xx_hal_gpio.h"
	.section	".note.GNU-stack","",%progbits
	.eabi_attribute	30, 6	@ Tag_ABI_optimization_goals
	.ARM_attribute	16, 1	@ Tag_AV_eba